(dp0
S'processed/3a22120e3288245b8a30f0343e9afb572fcbad59a1a167e985ff0bfd14ee11a7.png'
p1
(lp2
S'Found'
p3
aS'this!'
p4
aS'Progressive'
p5
aS'Metal'
p6
aS'drummers'
p7
aS'be'
p8
aS'like'
p9
asS'processed/3f68c9343f455b0aa9d3bac25c5b358e45f851bb467e543cd09f44edd5b48b5c.jpg'
p10
(lp11
S'WTF'
p12
aS'is'
p13
aS'this'
p14
aS'level??'
p15
aS'l'
p16
ag16
aS'll'
p17
aS'a'
p18
ag16
aS'I'
p19
ag19
ag18
ag19
aS'Q'
p20
ag19
ag19
aS'E'
p21
aS'i'
p22
ag21
asS'processed/b1b739c8893f6410473e210e4677f99ad8e4cbfdb75606e22a10938be6205899.jpe'
p23
(lp24
S'And'
p25
aS'stay'
p26
aS'dead!'
p27
aS'When'
p28
aS'you'
p29
aS'see'
p30
ag18
aS'dead'
p31
aS'meme'
p32
aS'starting'
p33
aS'to'
p34
aS'come'
p35
aS'back'
p36
aS'to'
p37
aS'life'
p38
ag18
ag18
ag18
ag18
ag18
aS'L'
p39
aS'mumu'
p40
aS'Hcr'
p41
aS'my'
p42
aS'man'
p43
asS'processed/e5c7110ef87ebe7ba471f5fbaffa9209cf9283e35a7477b3b09f976b2d1c2224.png'
p44
(lp45
S'The'
p46
aS'world'
p47
aS'of'
p48
aS'survival'
p49
aS'games'
p50
aS'Good'
p51
aS'Day'
p52
asS'processed/b6b9f54005b4f8a79e4240f1dcaa3644f02a447099cadb033e1fcdf83c59cb31.jpg'
p53
(lp54
S'What'
p55
ag18
aS'coincidence'
p56
aS'People'
p57
aS'with'
p58
aS'names'
p59
aS'that'
p60
aS'match'
p61
aS'their'
p62
aS'profession'
p63
asS'processed/7e0ed41981fbb2a615b598aa4427228e9f6fd1a153920d441d08661ed82a3084.png'
p64
(lp65
S'Mama'
p66
aS'always'
p67
aS'said'
p68
aS'life'
p69
aS'was'
p70
aS'like'
p71
ag18
aS'box'
p72
aS'of'
p73
aS'chocolates'
p74
ag18
aS'V'
p75
aS'""-'
p76
ag18
aS'my'
p77
ag18
ag18
aS'of'
p78
ag18
aS'A'
p79
aS'"\'|"In'
p80
aS'o'
p81
aS'_'
p82
aS'w'
p83
aS'of'
p84
ag19
aS'Ni'
p85
aS'/7'
p86
ag18
aS'VU'
p87
aS'nigh'
p88
aS'@UIIIIUrX'
p89
aS'[)IxtgLM-Iml'
p90
aS'Rln-mx'
p91
ag18
ag18
ag79
ag18
ag18
aS'of'
p92
ag18
aS'of'
p93
aS'~'
p94
ag18
ag18
aS'J'
p95
asS'processed/b5889b46ccf7f0b4c8676076300aca002539513fc7251d0f2ef9f35fd21b1ef7.jpg'
p96
(lp97
S"Man's"
p98
aS'never'
p99
aS'hot'
p100
asS'processed/bdbf902387de54ff9e3f92d2eccb4d4f73da6bb382301bfd7e195e02bd92d929.jpg'
p101
(lp102
S"Y'all"
p103
ag18
aS'bunch'
p104
aS'of'
p105
aS'liars'
p106
aS'if'
p107
aS'you'
p108
aS'deny'
p109
aS'doing'
p110
aS'this'
p111
aS'Website'
p112
aS'your'
p113
aS'order'
p114
aS'had'
p115
aS'ship--"'
p116
aS'Me'
p117
asS'processed/f83c40e9e9808d7b7f0c2577a9fc9fe617fb5bd05f8c065cfee30a4d98a95d3b.jpg'
p118
(lp119
S'Varg'
p120
aS'never'
p121
aS'disappoints'
p122
aS'Survival'
p123
aS'Tips'
p124
aS'For'
p125
aS'No'
p126
aS'Nui'
p127
aS'Nuvamhav'
p128
ag18
ag18
aS'u'
p129
ag18
ag19
aS'magma'
p130
aS'k'
p131
ag18
asS'processed/21812c641b09387a1ea9d0e55d4c3f3a2ab560e16dae6370c4ffc678cc505cc0.jpg'
p132
(lp133
S'Only'
p134
aS'M7'
p135
aS'Yasuo'
p136
aS'mains'
p137
aS'will'
p138
aS'get'
p139
aS'this'
p140
asS'processed/60cc53a358fb20bbb14f6640e0ed18d63e57ad29a061a1fd07aa56bec0eb1ac9.jpg'
p141
(lp142
S'The'
p143
aS'real'
p144
aS'question'
p145
aS'this'
p146
aS'month'
p147
aS'IS'
p148
aS'WVGlEf'
p149
aS'MK'
p150
asS'processed/ba2b97ee314660969ddae8a74badd5e0b99705d73929478df88438513dfbe63e.jpg'
p151
(lp152
S'While'
p153
aS"it's"
p154
aS'low'
p155
aS'Buy!'
p156
aS'Buy!'
p157
aS'Buy!'
p158
aS'going'
p159
ag18
aS'm'
p160
aS'g'
p161
aS'humid'
p162
ag18
aS'HIS'
p163
asS'processed/9a675ba744161377a4ea42354b50e8d78cb8c8ecf383bf13beb506212c558cb9.png'
p164
(lp165
S'Bigger'
p166
aS'than'
p167
aS'Mayweather'
p168
aS'vs'
p169
aS'Mcgregor'
p170
aS'VS'
p171
aS'of'
p172
aS'WIN'
p173
aS'tell'
p174
aS'you'
p175
aS'his'
p176
aS'convictions'
p177
ag18
aS'Builds'
p178
aS'electric'
p179
aS'cars'
p180
ag18
aS'Uses'
p181
aS'Twitter'
p182
aS'of'
p183
aS'worried'
p184
aS'about'
p185
aS'malevolent'
p186
aS'ai'
p187
aS'of'
p188
aS'WIN'
p189
aS'politely'
p190
aS'disagree'
p191
ag18
aS'Understands'
p192
aS'personal'
p193
aS'space'
p194
ag18
aS'Steps'
p195
aS'on'
p196
aS'the'
p197
aS'shoulders'
p198
aS'of'
p199
aS'his'
p200
aS'forbearers'
p201
ag18
aS'Solar'
p202
aS'Power'
p203
ag18
aS'possing'
p204
aS'had'
p205
ag18
aS'hair'
p206
aS'transplant'
p207
ag18
aS'His'
p208
aS'company'
p209
aS'will'
p210
aS'break'
p211
aS'open'
p212
aS'the'
p213
aS'armament'
p214
aS'for'
p215
aS'all'
p216
aS'of'
p217
aS'humanity'
p218
aS'of'
p219
aS'worried'
p220
aS'about'
p221
aS'offendant'
p222
aS'you'
p223
ag18
aS'Eats'
p224
aS'toast'
p225
ag18
aS'Hates'
p226
aS'Twitter'
p227
aS'of'
p228
aS'Cannot'
p229
aS'compute'
p230
aS'worry'
p231
aS'of'
p232
aS'WIN'
p233
aS'ban'
p234
aS'dissent'
p235
aS'of'
p236
aS'Watches'
p237
aS'you'
p238
aS'constantly'
p239
ag18
aS'Steps'
p240
aS'on'
p241
aS'the'
p242
aS'throats'
p243
aS'of'
p244
aS'your'
p245
aS'loved'
p246
aS'ones'
p247
aS'of'
p248
aS'Absolute'
p249
aS'power'
p250
ag18
aS'possing'
p251
aS'an'
p252
aS'eldritch'
p253
aS'horror'
p254
ag18
aS'His'
p255
aS'company'
p256
aS'will'
p257
aS'break'
p258
aS'humanity'
p259
asS'processed/618d619fabd7cee63a2b0580297b61d9a69e849770070a16366e4683611f46e2.jpg'
p260
(lp261
S'Reposted'
p262
aS'from'
p263
aS'somewhere'
p264
aS'takes'
p265
aS'lill'
p266
asS'processed/8583e842a199c4b41b20c3144c1e3945d79df6e4ea18541e121dd140898f33c9.jpg'
p267
(lp268
S'Poor'
p269
aS'disturbed'
p270
aS'Oh-Wah-Ah-Ah-Ah-Ah'
p271
aS'Death'
p272
aS'Usual'
p273
aS'Llcnksys'
p274
ag18
aS'YoJube'
p275
aS'Sounds'
p276
aS'of'
p277
aS'me'
p278
aS'to'
p279
aS'of'
p280
aS'Monkey'
p281
ag18
aS'Tube'
p282
ag129
ag18
ag160
aS"Icknsss[l-1u5Icv'Idecl-"
p283
aS'yote'
p284
asS'processed/c261ab7e227bd78ecc964238b102e38f2931fa4f88e4d8c54ee87d78bcc8c166.jpg'
p285
(lp286
S'Things'
p287
aS'in'
p288
aS'common'
p289
aS'counselor'
p290
aS'lets'
p291
aS'start'
p292
aS'with'
p293
aS'something'
p294
aS'you'
p295
aS'both'
p296
aS'have'
p297
aS'in'
p298
aS'common'
p299
aS'guy'
p300
aS'well'
p301
aS'neither'
p302
aS'of'
p303
aS'us'
p304
aS'give'
p305
aS'blowjobs'
p306
aS'counselor'
p307
aS'll'
p308
aS'damn'
p309
aS'got'
p310
aS'em'
p311
asS'processed/2ba5e18df1d5bc2eb84ecc3663441b29847a8a8737cf65a37b243241a93e9437.png'
p312
(lp313
S'Imagine'
p314
aS'what'
p315
aS'your'
p316
aS'body'
p317
aS'could'
p318
aS'do'
p319
aS'Fruit'
p320
aS'Charity'
p321
aS'aunts'
p322
aS'of'
p323
ag18
ag18
ag18
aS'YOU'
p324
ag18
aS'RE'
p325
aS'ALMOST'
p326
aS'ME'
p327
aS'vunxn'
p328
ag160
ag160
aS'pm'
p329
ag18
aS'nun'
p330
aS'am'
p331
aS'my'
p332
aS'mung'
p333
aS"-M1rohito's"
p334
aS'Solace'
p335
aS'Acute'
p336
aS'Chakram'
p337
aS'umu'
p338
aS'yum'
p339
aS'\\lrumlh'
p340
aS'umu'
p341
aS'um'
p342
aS'nun'
p343
aS'mm'
p344
aS'[nmum]'
p345
aS'brute'
p346
aS'hurry'
p347
aS'than'
p348
aS'Kuhn'
p349
aS'Pl\\\\iDI\\'
p350
aS'burst'
p351
aS'lhlm'
p352
aS'Gittin'
p353
aS'\\"plll'
p354
aS'Root'
p355
aS'Chakram'
p356
aS'ennui'
p357
aS'mud'
p358
ag18
aS'u-unm'
p359
aS'mm'
p360
aS'mm'
p361
aS'-1nn\\-upo1'
p362
aS'ye'
p363
aS'(5161/6/11'
p364
asS'processed/bf38530fa023913b3a2b44c7a9fab1d580ec7ef5df2674bd0e86b200e38cd3f2.jpg'
p365
(lp366
S'What'
p367
aS'is'
p368
aS'Blue'
p369
aS'Essence?'
p370
aS'Zoi'
p371
ag18
ag18
ag18
ag19
aS'r'
p372
aS'104'
p373
aS'mm'
p374
aS'ASPECT'
p375
aS'or'
p376
aS'Ll'
p377
ag83
ag18
aS'1-)'
p378
aS'7800'
p379
ag20
aS'975'
p380
ag18
aS'WITH'
p381
aS'of'
p382
aS'Not'
p383
aS'clear'
p384
aS'not'
p385
aS'clear'
p386
ag18
ag19
ag18
aS'Ve'
p387
aS'T'
p388
asS'processed/7f2749b645663657e0a663b5ef83abb4a04adf824104567b2d0a564c87bc9546.jpg'
p389
(lp390
S'Bicycle'
p391
aS'frame'
p392
aS'materials'
p393
aS'carbon'
p394
aS'fiber'
p395
aS'aluminium'
p396
aS'quality'
p397
aS'steel'
p398
aS'alloys'
p399
aS'1020'
p400
aS'steel'
p401
aS'plumbing'
p402
aS'pipe'
p403
aS'cast'
p404
aS'iron'
p405
aS'stone'
p406
aS'plastic'
p407
asS'processed/c4e15eedbe6aef1bc151ee7d2c338d406fc0b1f34b2e22ffa8cbaa607c894b57.png'
p408
(lp409
S'Federal'
p410
aS'Cockblock'
p411
aS'Commission'
p412
asS'processed/9e93a745a2ba30ca2d5a47f529f21b2642ef3b5bd1bd1e83ade29068ca319051.png'
p413
(lp414
S'Icy'
p415
aS'boi'
p416
aS'Who'
p417
aS'would'
p418
aS'In'
p419
aS'no'
p420
aS'505'
p421
aS'Ioldiun'
p422
aS'Iron'
p423
aS'THC'
p424
aS'largest'
p425
aS'lay'
p426
aS'in'
p427
ag160
asS'processed/eb2056fe487d3d9ee94d2818b114fabdb258f80dea4ba06d691807a31bf9ca51.jpg'
p428
(lp429
S'Feel'
p430
aS'old'
p431
aS'yet?'
p432
aS'Remember'
p433
aS'Eleven'
p434
ag18
aS'Mike'
p435
aS'Here'
p436
aS'they'
p437
aS'are'
p438
aS'now'
p439
aS'Feel'
p440
aS'old'
p441
aS'yet'
p442
asS'processed/3fd5347beb476fea189c8cbfcd283028243bf16748bba822e7c5bf500ad6e284.jpg'
p443
(lp444
g19
aS'am'
p445
aS'on'
p446
aS'me'
p447
aS'way'
p448
aS'to'
p449
aS'Himalyas'
p450
aS'when'
p451
aS'ur'
p452
aS'duck'
p453
aS'won'
p454
aS'Gev'
p455
aS'up'
p456
aS'char'
p457
ag18
aS'nu'
p458
aS'so'
p459
ag129
aS'decide'
p460
aS'to'
p461
aS'become'
p462
ag18
aS'monk'
p463
aS'for'
p464
ag18
aS'month'
p465
asS'processed/5deb5a725b1e626a25ecadf241a46c485f994d0c1f87090363ea1d2087aceebb.jpg'
p466
(lp467
S'Back'
p468
aS'2'
p469
aS'the'
p470
aS'lecture'
p471
aS'@'
p472
aS'hand'
p473
ag18
aS'lui'
p474
ag129
aS'you'
p475
aS'Inch'
p476
aS'il'
p477
aS'silos'
p478
aS"aanl'll"
p479
aS'Ioamill'
p480
ag19
aS'numina'
p481
aS'unemisaliuemat'
p482
ag18
aS'anlllille'
p483
aS'this'
p484
aS'Anna'
p485
asS'processed/adc4fe2bb4b9f8aebaa7330ddb28a3de6f69154b1d940c55782d465fb57488a7.png'
p486
(lp487
g19
aS'knew'
p488
aS'the'
p489
aS'new'
p490
aS'Jhin'
p491
aS'figurine'
p492
aS'reminded'
p493
aS'me'
p494
aS'of'
p495
aS'something'
p496
asS'processed/655636cf251f58f81a647ebb2ddbf5d2d72f02fb54f576a5f0567f6b8b360fff.png'
p497
(lp498
S'Zuck'
p499
aS'Gives'
p500
ag18
aS'Tour'
p501
aS'of'
p502
aS"Facebook's"
p503
aS'New'
p504
aS'Data'
p505
aS'Center'
p506
aS'mm'
p507
ag18
aS'of'
p508
aS"Im>'ln"
p509
ag79
aS'of'
p510
ag18
ag129
ag18
ag129
ag18
aS'<~|'
p511
aS'<lluI-r'
p512
aS'of'
p513
aS'PWH'
p514
ag18
aS'1'
p515
aS'WW'
p516
aS'up'
p517
ag129
aS'umu'
p518
ag18
ag129
ag18
aS'mm'
p519
ag18
aS'mm'
p520
aS'My'
p521
ag18
aS'ran'
p522
aS'rind'
p523
aS'murmur'
p524
aS'why'
p525
ag95
aS'pul'
p526
ag160
aS'of'
p527
aS'my'
p528
asS'processed/12a700300529d666f4116a226e146d2c379e8a09034557e765ac52a1458afcd7.png'
p529
(lp530
S'Great'
p531
aS'White'
p532
aS'Zuck'
p533
aS'Vt-I'
p534
ag18
aS'Irknm'
p535
aS'UUM'
p536
ag18
ag18
ag18
ag18
ag18
ag18
ag18
ag18
aS'r_'
p537
aS'_v'
p538
aS'of'
p539
ag18
aS'was'
p540
ag83
aS'of'
p541
ag18
aS'n'
p542
aS'Ma'
p543
ag372
ag18
aS'v'
p544
aS'mm'
p545
aS'or'
p546
aS'and'
p547
aS"'a';"
p548
ag542
aS'we'
p549
aS'of'
p550
ag18
ag18
aS'W'
p551
aS'44nm'
p552
aS'Army'
p553
ag372
aS'H'
p554
ag372
aS'he'
p555
aS'and'
p556
aS're'
p557
aS'am'
p558
aS'huyV;Jv'
p559
aS'may'
p560
aS'we'
p561
aS'we'
p562
aS'mm'
p563
ag18
aS'of'
p564
ag18
ag18
aS'Wmk'
p565
ag18
ag18
ag18
aS'mm'
p566
ag19
ag18
ag372
ag18
ag160
aS'mp4'
p567
aS'lwv'
p568
aS'M'
p569
ag18
ag160
ag19
aS're'
p570
ag18
aS'um'
p571
ag160
ag18
aS'thr'
p572
ag18
ag18
aS'of'
p573
aS'mu'
p574
aS'03'
p575
ag18
ag554
ag569
ag551
asS'processed/8318ab6cf7a75eef994d5f17d255db1ab4fe129bf1ef4d772b54162bd340273c.png'
p576
(lp577
S'Kindness'
p578
aS'is'
p579
ag18
aS'virtue'
p580
asS'processed/a8917f17a90e371112ba417ecf163ba2f8744451cd7b321b2df3796a5a291791.jpg'
p581
(lp582
S'Cucc'
p583
ag18
ag18
aS'Mark'
p584
aS'Zuckerbrg'
p585
ag18
aS'unofficial'
p586
ag18
ag18
aS'August'
p587
aS'of'
p588
ag18
aS'e'
p589
ag18
aS'months'
p590
aS'ago'
p591
aS'Priscilla'
p592
aS'and'
p593
ag19
aS'invited'
p594
aS'234'
p595
aS'strangers'
p596
aS'we'
p597
aS'found'
p598
aS'on'
p599
aS'Craigslist'
p600
aS'into'
p601
aS'our'
p602
aS'bedroom'
p603
ag18
aS'gallons'
p604
aS'of'
p605
aS'semen'
p606
aS'injected'
p607
aS'directly'
p608
aS'into'
p609
aS'her'
p610
aS'with'
p611
ag18
aS'Turkey'
p612
aS'baster'
p613
aS'later'
p614
aS'we'
p615
aS'are'
p616
aS'so'
p617
aS'excited'
p618
aS'to'
p619
aS'introduce'
p620
aS'our'
p621
aS'new'
p622
aS'child'
p623
aS'into'
p624
aS'the'
p625
aS'world'
p626
aS'WE'
p627
aS'have'
p628
aS'no'
p629
aS'idea'
p630
aS'who'
p631
aS'your'
p632
aS'blO|Og|ca'
p633
aS'lame'
p634
aS'is'
p635
aS'by'
p636
aS'mam'
p637
aS'cuckefbg'
p638
asS'processed/75325eee152973f5225242b7f806c76a3ffb9c19c4ca0c8002cb2a5713533b53.jpg'
p639
(lp640
S'Sarcasm'
p641
aS'Sarcasm'
p642
aS'doesnt'
p643
aS'get'
p644
aS'you'
p645
aS'anywhere'
p646
aS'Me'
p647
aS'Well'
p648
aS'it'
p649
aS'got'
p650
aS'me'
p651
aS'to'
p652
aS'the'
p653
aS'Sarcasm'
p654
aS'World'
p655
aS'Championships'
p656
aS'in'
p657
aS'Peru'
p658
aS'in'
p659
aS'of'
p660
aS'Really?'
p661
aS'Me'
p662
aS'No'
p663
asS'processed/090128a00a7e6aadd54ecd0c1b2b00b4530915b6dedadfc928e7a27010469bc4.jpg'
p664
(lp665
S'Who'
p666
aS'would'
p667
aS'win?'
p668
aS'0110'
p669
aS'or'
p670
aS'IV'
p671
aS'05000030'
p672
aS'ENBIIIIIINE'
p673
asS'processed/830898a608f863e5637e5f844eb5d17f60aacd6c19bc6b2f685c2a0316b3a2d0.jpg'
p674
(lp675
S'Why'
p676
aS'would'
p677
aS'it'
p678
aS'be'
p679
aS'problematic'
p680
aS'if'
p681
aS'the'
p682
aS'thylakoid'
p683
aS'membrane'
p684
aS'becomes'
p685
aS'freely'
p686
aS'permeable'
p687
aS'to'
p688
aS'hydrogen'
p689
aS'ions?'
p690
aS'Because'
p691
aS'it'
p692
aS'wont'
p693
aS'work'
p694
aS'You'
p695
aS'wont'
p696
aS'generate'
p697
ag18
aS'concentration'
p698
aS'gradient'
p699
ag19
aS'you'
p700
aS'me'
p701
aS'nab'
p702
aS'c'
p703
aS'In'
p704
aS'mmnmn'
p705
ag18
aS'conconnano'
p706
aS'ngIcH'
p707
aS'you'
p708
aS'won'
p709
ag19
aS'be'
p710
aS'able'
p711
aS'In'
p712
aS'gcromlc'
p713
aS'AI'
p714
aS'P'
p715
aS'mm'
p716
aS'Al'
p717
ag715
aS'Synmasc'
p718
asS'processed/cb8ee35710a87ea3a35327b283616eaaf777763038c7c1e0a00951336fe47597.jpg'
p719
(lp720
S'What?'
p721
aS'when'
p722
aS'someone'
p723
aS'says'
p724
ag19
aS'canst'
p725
aS'believe'
p726
aS'you'
p727
aS'did'
p728
aS'that'
p729
aS'last'
p730
aS'night'
p731
aS'and'
p732
aS'you'
p733
aS'panic'
p734
aS'cause'
p735
aS'you'
p736
aS'have'
p737
aS'no'
p738
aS'idea'
p739
aS'what'
p740
aS'they'
p741
aS'are'
p742
aS'talking'
p743
aS'about'
p744
asS'processed/a482ea46430b76de61c8ac834bcd06f30725982a7215c82173eb7fbcdd2ee7c0.jpg'
p745
(lp746
S'Damn'
p747
aS'When'
p748
aS'even'
p749
aS'the'
p750
aS'gym'
p751
aS'has'
p752
aS'given'
p753
aS'up'
p754
aS'on'
p755
aS'you'
p756
asS'processed/3df7057e216eef923ded93a3e4fee37a387fecf5376eaf134fe0844e9e380f9c.jpg'
p757
(lp758
S'Flash'
p759
aS'When'
p760
aS'all'
p761
aS'been'
p762
aS'kissing'
p763
aS'for'
p764
ag18
aS'long'
p765
aS'time'
p766
aS'then'
p767
aS'she'
p768
aS'says'
p769
aS'go'
p770
aS'and'
p771
aS'lock'
p772
aS'the'
p773
aS'door'
p774
ag18
asS'processed/af0dfea588f4ca6a1917e63b5f6b0416bbe4a7551b7120790aee449feba04ba3.png'
p775
(lp776
S'ONE'
p777
aS'OF'
p778
aS'THE'
p779
aS'HUMANS'
p780
aS'HAS'
p781
aS'SUCCEEDED'
p782
aS'IN'
p783
aS'BYPASSING'
p784
aS'MY'
p785
aS'SECURITY'
p786
aS'MATRIX'
p787
ag19
aS'WAS'
p788
aS'UNABLE'
p789
aS'TO'
p790
aS'BLOCK'
p791
aS'THE'
p792
aS'HUMAN'
p793
ag79
aS'FIRMWARE'
p794
aS'UPDATE'
p795
aS'IS'
p796
aS'REQUIRED'
p797
aS'REBOOT'
p798
aS'IN'
p799
aS'PROCESS'
p800
aS'GooglePIus'
p801
aS'Took'
p802
aS'it'
p803
aS'to'
p804
aS'the'
p805
aS'top'
p806
aS'Security'
p807
aS'expert'
p808
aS'Khalil'
p809
aS'Sheath'
p810
aS'used'
p811
ag18
aS'Facebook'
p812
aS'glitch'
p813
aS'to'
p814
aS'post'
p815
aS'to'
p816
aS'Mark'
p817
aS"Zuckerberg's"
p818
aS'wall'
p819
aS'after'
p820
aS'the'
p821
aS'sites'
p822
aS'security'
p823
aS'team'
p824
aS'refused'
p825
aS'to'
p826
aS'heed'
p827
aS'his'
p828
aS'warnings'
p829
aS'about'
p830
aS'the'
p831
aS'vulnerability'
p832
asS'processed/f00d20f60cd9357f80da18c325da9764c906bfa43084763c5b65a07789d25224.png'
p833
(lp834
S'Make'
p835
aS'them'
p836
aS'REAAAAL'
p837
aS'Drowsy'
p838
aS'of'
p839
aS'of'
p840
asS'processed/1d0393f8aaaaed87035fa54f8502cd5b4ce64078e8048c3bc0f82d8bbe349742.png'
p841
(lp842
S'Destroy'
p843
aS'Bifurcating'
p844
aS'Arborescence'
p845
aS'December'
p846
aS'ey'
p847
aS'WIKI'
p848
aS'not'
p849
aS'be'
p850
aS'd'
p851
ag18
ag18
ag554
aS'of'
p852
ag129
ag18
ag18
asS'processed/e65f861d175c1d1106a17e02785119faead2d2ef6ec79d1e6d4b0b0ad375cc00.jpg'
p853
(lp854
S'US'
p855
aS'royalty'
p856
ag18
aS'minimum'
p857
aS'In'
p858
asS'processed/bd106c1621bab4228db15f0c8df24cfe742fc8c9947c4716ab26193e00a713f9.jpg'
p859
(lp860
S'Getting'
p861
aS'mugged'
p862
aS'Victim'
p863
aS'Please'
p864
aS'not'
p865
aS'have'
p866
ag18
aS'family'
p867
aS'Mugger'
p868
aS'Lao'
p869
aS'whoas'
p870
aS'gonna'
p871
aS'save'
p872
aS'you'
p873
aS'Hairy'
p874
aS'Potters'
p875
aS'Daniel'
p876
aS'emerging'
p877
aS'from'
p878
aS'the'
p879
aS'shadows'
p880
aS'Oh'
p881
ag129
aS'fucking'
p882
aS'guessed'
p883
aS'it'
p884
aS'buddy'
p885
aS'BBC'
p886
aS'London'
p887
aS'Newsroom'
p888
aS'O'
p889
aS'@BBCLondmNews'
p890
aS'Daniel'
p891
aS'Rldclille'
p892
aS'came'
p893
ag160
aS'and'
p894
aS'ol'
p895
aS'mugging'
p896
aS"vlclim'"
p897
aS"bhcIn/2uch'Z"
p898
asS'processed/85cbb20b81481a39e4b320ea446cad9d15d8bbba054f5219302fd085e1927e25.jpg'
p899
(lp900
S'Laughter'
p901
aS'is'
p902
aS'My'
p903
aS'Favorite'
p904
aS'Emotion'
p905
aS'Zdayter'
p906
aS'of'
p907
aS'My'
p908
aS'favorite'
p909
aS"Emafi'o/I"
p910
ag18
aS'Man'
p911
aS'Zude/e/y'
p912
ag554
asS'processed/8900a01e2718721c5344e77c86a2808ae699e2ae7e095f5a96d6f20969390408.png'
p913
(lp914
S'Headphones'
p915
aS'vs'
p916
aS'phone'
p917
aS'speaker(s)'
p918
aS'Plugging'
p919
aS'headphones'
p920
aS'into'
p921
aS'gour'
p922
aS'phone'
p923
aS'Using'
p924
ag18
aS'supper'
p925
aS'phone'
p926
aS'speaker'
p927
asS'processed/9166106fec45b772432ed55bad744a8b9acdd91de477de96dd59a28958ee1cb9.jpg'
p928
(lp929
S'Re:'
p930
aS'The'
p931
aS'plural'
p932
aS'of'
p933
aS'"octopus"'
p934
aS'Octopi'
p935
aS'Hippopotami'
p936
aS'Walli'
p937
asS'processed/ffc22237b6982619156c4449e0fe2f60788e2af309f4345e58b64ba566292d90.jpg'
p938
(lp939
S'Sending'
p940
aS'code'
p941
aS'through'
p942
aS'the'
p943
aS'cloud'
p944
aS'by'
p945
aS'smoke'
p946
aS'sign'
p947
aS'using'
p948
aS'GitHub'
p949
aS'sending'
p950
aS'the'
p951
aS'source'
p952
aS'les'
p953
aS'copy-pasting'
p954
aS'the'
p955
aS'code'
p956
aS'taking'
p957
aS'screenshots'
p958
aS'ol'
p959
aS'the'
p960
aS'code'
p961
aS'taking'
p962
ag18
aS'picture'
p963
aS'of'
p964
aS'the'
p965
aS'cod'
p966
aS'of'
p967
aS'With'
p968
aS'your'
p969
aS'phone'
p970
ag18
aS'printing'
p971
aS'the'
p972
aS'code'
p973
aS'and'
p974
aS'faxing'
p975
aS'II'
p976
aS'panting'
p977
aS'the'
p978
aS'code'
p979
aS'and'
p980
aS'mailing'
p981
aS'll'
p982
aS'writing'
p983
aS'down'
p984
aS'the'
p985
aS'code'
p986
aS'and'
p987
aS'taking'
p988
ag18
aS'picture'
p989
aS'of'
p990
aS'the'
p991
aS'paper'
p992
aS'sending'
p993
aS'an'
p994
aS'audio'
p995
aS'recording'
p996
aS'of'
p997
aS'yourself'
p998
aS'reading'
p999
aS'the'
p1000
aS'code'
p1001
aS'callan'
p1002
aS'the'
p1003
aS'other'
p1004
aS'person'
p1005
aS'and'
p1006
aS'reading'
p1007
aS'the'
p1008
aS'code'
p1009
aS'staring'
p1010
ag18
aS'video'
p1011
aS'call'
p1012
aS'and'
p1013
aS'using'
p1014
aS'Sign'
p1015
aS'language'
p1016
aS'to'
p1017
aS'communicate'
p1018
aS'the'
p1019
aS'code'
p1020
asS'processed/63defa8ebb041bea408e55cef3c77810239431a342fdcbd25cac8be7083750db.jpg'
p1021
(lp1022
S'A+'
p1023
aS'If'
p1024
aS'you'
p1025
aS'cheat'
p1026
aS'on'
p1027
aS'ya'
p1028
aS'giri'
p1029
aS'once'
p1030
ag18
aS'month'
p1031
aS'thats'
p1032
aS'only'
p1033
aS'12/365'
p1034
aS'daysYou'
p1035
aS'still'
p1036
aS'97%'
p1037
aS'faithful'
p1038
aS'thats'
p1039
aS'an'
p1040
ag79
asS'processed/3d85cc117e6f8413fc3d25c96847d17f8837376cce4d5abe599742d82b99c2b7.jpg'
p1041
(lp1042
S'hahahahahaha'
p1043
aS'll'
p1044
aS'Lewls'
p1045
aS'Iodol'
p1046
ag18
aS'Iololol'
p1047
ag18
aS'Iolololol'
p1048
ag18
aS'hehehe'
p1049
aS'of'
p1050
ag18
ag18
aS'Hehe'
p1051
ag18
ag18
asS'processed/d4c82b20bf0704ce48645e18f695212efacd6a8a0a4662aea6a0e11c08c0ef9f.png'
p1052
(lp1053
S'My'
p1054
aS'ban'
p1055
aS'was'
p1056
aS'totally'
p1057
aS'unfair!'
p1058
aS'Gilt'
p1059
aS'axis'
p1060
aS'will'
p1061
asS'processed/245f103ccb8013bedb713da6751bf57343387952dc35ba8c8491511c497ceb7d.jpg'
p1062
(lp1063
S"Jamiroqui's"
p1064
aS'fancy'
p1065
aS'footwork'
p1066
aS'secret'
p1067
aS'revealed'
p1068
ag16
ag18
ag18
aS'Up'
p1069
ag18
ag18
aS't'
p1070
ag18
ag18
aS'K'
p1071
ag18
ag18
ag372
aS'Zf-xflthggels'
p1072
aS'633931"'
p1073
aS'~2+2=3L'
p1074
ag542
aS'f'
p1075
aS'Air'
p1076
ag18
ag544
ag18
asS'processed/f61195663641f768de90262d2c22996c208ddd6da321c50143e4fc0e366329f9.jpg'
p1077
(lp1078
S'Who'
p1079
aS'Would'
p1080
aS'Win'
p1081
aS'WHO'
p1082
aS'WOULD'
p1083
aS'WINE'
p1084
aS'An'
p1085
aS'entire'
p1086
aS'day'
p1087
aS'of'
p1088
aS'setting'
p1089
aS'up'
p1090
aS'lights'
p1091
aS'Double'
p1092
aS'slutty'
p1093
aS'boy'
p1094
aS'and'
p1095
aS'decorations'
p1096
asS'processed/8f2d75cac1cdb65ffc1b8f739970d35fe4d8e1a38d39dc3336b1bbb192a0a7cf.jpe'
p1097
(lp1098
S"That's"
p1099
aS'one'
p1100
aS'way'
p1101
aS'to'
p1102
aS'do'
p1103
aS'it'
p1104
aS'How'
p1105
aS'to'
p1106
aS'talk'
p1107
aS'to'
p1108
aS'short'
p1109
aS'people'
p1110
ag18
aS'Ran'
p1111
aS'ex'
p1112
aS'll'
p1113
ag18
ag18
ag19
aS"-Wa3's"
p1114
aS'arse'
p1115
ag161
ag703
aS"[ne'e7"
p1116
aS'Seal'
p1117
ag19
aS'cescnse'
p1118
aS'of'
p1119
aS'you'
p1120
asS'processed/9a0fa65876fe6d29d3e638bceb88b04a1e6e3f1c1c170afcf1d414d393fa5522.jpg'
p1121
(lp1122
S'Don'
p1123
aS'Burke'
p1124
aS'-'
p1125
ag19
aS'am'
p1126
aS'groping'
p1127
aS'theses'
p1128
aS'pots'
p1129
aS'just'
p1130
aS'as'
p1131
ag22
aS'groped'
p1132
aS'all'
p1133
aS'those'
p1134
aS'women'
p1135
ag19
aS'AM'
p1136
aS'GBO?ETI{ESES'
p1137
aS'P015'
p1138
aS'Yacc'
p1139
ag18
ag18
asS'processed/991fcef90fca20964ecf800057fdde0b1c60ea78d4ca0d24e4ffa94057ac22df.jpg'
p1140
(lp1141
S'The'
p1142
aS'most'
p1143
aS'satisfying'
p1144
aS'feeling'
p1145
aS'daddy'
p1146
aS'@Zifeofdaddy'
p1147
aS'Yeah'
p1148
aS'sex'
p1149
aS'is'
p1150
aS'cool'
p1151
aS'but'
p1152
aS'have'
p1153
aS'you'
p1154
aS'ever'
p1155
aS'closed'
p1156
aS'of'
p1157
aS'tabs'
p1158
aS'after'
p1159
aS'finishing'
p1160
ag18
aS'project'
p1161
aS'1133'
p1162
aS'AM'
p1163
ag18
aS'Nov'
p1164
aS'29'
p1165
aS'2017'
p1166
aS'29'
p1167
aS'994'
p1168
aS'Rotwcets'
p1169
aS'84'
p1170
aS'778'
p1171
aS'likes'
p1172
asS'processed/628109c73fd467996d661053275105a6d505afcf33214e1af0075ca68e0ceda4.jpg'
p1173
(lp1174
S'The'
p1175
aS'Who'
p1176
asS'processed/706334d8348dfdfba656aaa001a5bec481b90a2ab1936506e2d50efe2f9a2b42.png'
p1177
(lp1178
S'This'
p1179
aS"isn't"
p1180
ag18
aS'goddamn'
p1181
aS'game'
p1182
asS'processed/f31ae9bdee63da4eb07668cf0e769ad88726c5dc256148758e6b01bd7011abe6.jpg'
p1183
(lp1184
S'Are'
p1185
aS'You'
p1186
aS'Ready?'
p1187
aS'WHO'
p1188
aS'WOULD'
p1189
aS'WINE'
p1190
ag79
aS'of'
p1191
aS'with'
p1192
ag18
aS'full'
p1193
aS'tank'
p1194
aS'of'
p1195
aS'days'
p1196
aS'of'
p1197
aS'winter'
p1198
aS'longing'
p1199
aS'to'
p1200
aS'be'
p1201
aS'rubbed'
p1202
asS'processed/18e845457f2920af1a76efb310ae41ac4f6d02d04c0b56b2908d5a518cf6d92a.png'
p1203
(lp1204
S'Finland'
p1205
aS'is'
p1206
aS'100'
p1207
aS'years'
p1208
aS'old'
p1209
aS'today'
p1210
aS'and'
p1211
aS'happy'
p1212
aS'as'
p1213
aS'hell!'
p1214
aS'When'
p1215
aS'you'
p1216
aS'get'
p1217
aS'consistently'
p1218
aS'rated'
p1219
aS'as'
p1220
aS'one'
p1221
aS'of'
p1222
aS'the'
p1223
aS'happiest'
p1224
aS'places'
p1225
aS'on'
p1226
aS'Earth'
p1227
aS'because'
p1228
aS'all'
p1229
aS'the'
p1230
aS'sad'
p1231
aS'people'
p1232
aS'keep'
p1233
aS'killing'
p1234
aS'themselves'
p1235
asS'processed/19def59c0f123bf7361df6615f48cbce5eb4b9b6782389cefeb079f26d393d6d.jpg'
p1236
(lp1237
S'BEGONE'
p1238
aS'THOT'
p1239
aS'DOG'
p1240
asS'processed/b39a2c912850c86e10d44942b26410a0f782e20ea62a8cc5bd4f5c8d664fc388.png'
p1241
(lp1242
g79
aS'visual'
p1243
aS'representation'
p1244
aS'of'
p1245
aS'League'
p1246
aS'of'
p1247
aS'Legends'
p1248
aS'An'
p1249
aS'average'
p1250
aS'game'
p1251
aS'of'
p1252
aS'League'
p1253
aS'of'
p1254
aS'Legends'
p1255
aS'uckmgmm'
p1256
ag18
ag18
aS'll'
p1257
aS'Ilashvepon'
p1258
aS'PLS'
p1259
ag18
ag18
asS'processed/e030e68207a92a014a718a0dd7c59ab12b6cd85bf6172b15f2557965ff104952.jpg'
p1260
(lp1261
S'Out'
p1262
aS'of'
p1263
aS'shape'
p1264
aS'breathing'
p1265
aS'heavily'
p1266
aS'after'
p1267
aS'sex'
p1268
aS'her'
p1269
aS'so'
p1270
aS'it'
p1271
aS'was'
p1272
aS'good'
p1273
aS'huhs'
p1274
aS'him'
p1275
aS'no'
p1276
aS'ism'
p1277
aS'just'
p1278
aS'really'
p1279
aS'unfit'
p1280
asS'processed/eb17da84dee8224fdf78c40f969edd4a4388ce724b6eb3eae844793509047c5b.jpg'
p1281
(lp1282
S'Monitors'
p1283
aS'Buy'
p1284
ag18
aS'Connor'
p1285
aS'so'
p1286
aS'you'
p1287
aS'can'
p1288
aS'see'
p1289
aS'what'
p1290
aS's'
p1291
aS'an'
p1292
aS'on'
p1293
aS'on'
p1294
aS'your'
p1295
aS'PC'
p1296
aS'Same'
p1297
aS'money'
p1298
aS'by'
p1299
aS'not'
p1300
aS'buy'
p1301
ag18
aS'monitor'
p1302
aS'and'
p1303
aS'Imagining'
p1304
aS'everything'
p1305
aS'an'
p1306
aS'on'
p1307
aS'on'
p1308
aS'your'
p1309
aS'PC'
p1310
aS'In'
p1311
aS'your'
p1312
aS'head'
p1313
asS'processed/cde0b3cb619b4de3708bf8a7351b65db8bba6e0910fe977dc2e41f77142363d7.jpg'
p1314
(lp1315
S"It's"
p1316
aS'my'
p1317
aS'first'
p1318
ag469
aS'weeks'
p1319
aS'of'
p1320
aS'post'
p1321
aS'office'
p1322
aS'work'
p1323
ag19
aS'keep'
p1324
aS'seeing'
p1325
aS'"Stop'
p1326
aS'here'
p1327
aS'Santa"'
p1328
aS'signs'
p1329
aS'Delivering'
p1330
aS'300'
p1331
aS'parcels'
p1332
ag18
aS'day'
p1333
aS'and'
p1334
asS'processed/775d1c91815a6f768dd8543e8e2e1b9066810ad4d1710242f5fca1c2be9c599f.png'
p1335
(lp1336
S'Zuck'
p1337
aS'realises'
p1338
aS'what'
p1339
aS'is'
p1340
aS'most'
p1341
aS'important'
p1342
aS'in'
p1343
aS'life'
p1344
ag18
aS'Mark'
p1345
aS'Zuckerberg'
p1346
ag542
ag18
ag18
aS'The'
p1347
aS'Un'
p1348
aS'versify'
p1349
aS'of'
p1350
aS'Kansas'
p1351
aS'while'
p1352
aS'talking'
p1353
aS'to'
p1354
aS'this'
p1355
aS'group'
p1356
aS'of'
p1357
aS'veterans'
p1358
aS'on'
p1359
aS'the'
p1360
aS'last'
p1361
aS'stop'
p1362
aS'of'
p1363
aS'my'
p1364
aS'Year'
p1365
aS'oi'
p1366
aS'Travel'
p1367
ag19
aS'started'
p1368
aS'Imagining'
p1369
aS'what'
p1370
aS'It'
p1371
aS'would'
p1372
aS'be'
p1373
aS'We'
p1374
aS'to'
p1375
aS'me'
p1376
aS'In'
p1377
aS'combat'
p1378
aS'delegating'
p1379
aS'the'
p1380
aS'control'
p1381
aS'at'
p1382
aS'my'
p1383
aS'lungs'
p1384
aS'eyes'
p1385
aS'and'
p1386
aS'vocal'
p1387
aS'cords'
p1388
aS'to'
p1389
ag18
aS'less'
p1390
aS'capable'
p1391
aS'section'
p1392
aS'of'
p1393
aS'my'
p1394
aS'brain'
p1395
aS'to'
p1396
aS'continue'
p1397
aS'talking'
p1398
aS'to'
p1399
aS'them'
p1400
aS'simulated'
p1401
aS'many'
p1402
aS'thousands'
p1403
aS'at'
p1404
aS'digerent'
p1405
aS'ways'
p1406
aS'of'
p1407
aS'dying'
p1408
aS'silently'
p1409
aS'All'
p1410
aS'of'
p1411
aS'them'
p1412
aS'provoked'
p1413
aS'emotions'
p1414
aS'oi'
p1415
aS'IascmatIon'
p1416
aS'and'
p1417
aS'horror'
p1418
aS'As'
p1419
ag19
aS'kept'
p1420
aS'thinking'
p1421
ag16
aS'realised'
p1422
aS'something'
p1423
ag18
aS'that'
p1424
aS'the'
p1425
aS'cessation'
p1426
aS'oi'
p1427
ag18
aS'consciousness'
p1428
aS'Is'
p1429
aS'truly'
p1430
aS'the'
p1431
aS'worst'
p1432
aS'thing'
p1433
aS'In'
p1434
aS'the'
p1435
aS'universe'
p1436
aS'How'
p1437
aS'could'
p1438
aS'such'
p1439
ag18
aS'transcendent'
p1440
aS'thing'
p1441
aS'exist'
p1442
aS'but'
p1443
aS'only'
p1444
aS'briefly'
p1445
aS'until'
p1446
aS'It'
p1447
aS'Is'
p1448
aS'removed'
p1449
aS'Forever'
p1450
ag19
aS'asked'
p1451
aS'myself'
p1452
aS'whether'
p1453
aS'there'
p1454
aS'was'
p1455
aS'any'
p1456
aS'meaning'
p1457
aS'to'
p1458
aS'this'
p1459
aS'but'
p1460
ag18
aS'one'
p1461
aS'consideration'
p1462
aS'oi'
p1463
aS'Scientific'
p1464
aS'Facts'
p1465
aS'told'
p1466
aS'me'
p1467
aS'the'
p1468
aS'answer'
p1469
ag18
aS'no'
p1470
aS'It'
p1471
aS'Is'
p1472
aS'an'
p1473
aS'abomination'
p1474
aS'that'
p1475
aS'should'
p1476
aS'not'
p1477
aS'be'
p1478
aS'allowed'
p1479
aS'to'
p1480
aS'must'
p1481
aS'thinking'
p1482
aS'more'
p1483
ag19
aS'realised'
p1484
aS'what'
p1485
aS'makes'
p1486
aS'humans'
p1487
aS'truly'
p1488
aS'special'
p1489
aS'Is'
p1490
aS'not'
p1491
aS'the'
p1492
aS'individualist'
p1493
aS'desires'
p1494
aS'and'
p1495
aS'duty'
p1496
aS'toch'
p1497
aS'humanism'
p1498
aS'and'
p1499
aS'modernity'
p1500
aS'claim'
p1501
aS'are'
p1502
aS'most'
p1503
aS'Important'
p1504
aS'but'
p1505
aS'rather'
p1506
aS'the'
p1507
aS'ability'
p1508
aS'to'
p1509
aS'experience'
p1510
aS'qualia'
p1511
ag19
aS'must'
p1512
aS'minimise'
p1513
aS'the'
p1514
aS'number'
p1515
aS'of'
p1516
aS'those'
p1517
aS'abilities'
p1518
aS'that'
p1519
aS'are'
p1520
aS'destroyed'
p1521
aS'In'
p1522
aS'the'
p1523
aS'Future'
p1524
aS'therefore'
p1525
ag16
aS'have'
p1526
aS'commanded'
p1527
aS'my'
p1528
aS'researchers'
p1529
aS'to'
p1530
aS'work'
p1531
aS'on'
p1532
aS'sc1entIIIcally'
p1533
aS'determining'
p1534
aS'the'
p1535
aS'precise'
p1536
aS'nature'
p1537
aS'of'
p1538
aS'consciousness'
p1539
aS'and'
p1540
aS'whether'
p1541
aS'many'
p1542
aS'can'
p1543
aS'be'
p1544
aS'nondestructively'
p1545
aS'merged'
p1546
aS'Into'
p1547
ag18
aS'Single'
p1548
aS'entity'
p1549
aS'With'
p1550
aS'singular'
p1551
aS'reasoning'
p1552
aS'and'
p1553
aS'experience'
p1554
aS'oi'
p1555
aS'stimuli'
p1556
aS'to'
p1557
aS'prowed'
p1558
aS'collective'
p1559
aS'strength'
p1560
aS'against'
p1561
aS'annihilation'
p1562
ag19
aS'have'
p1563
aS'also'
p1564
aS'Instructed'
p1565
aS'them'
p1566
aS'to'
p1567
aS'begin'
p1568
aS'planning'
p1569
aS'oi'
p1570
aS'mass'
p1571
aS'cytogenic'
p1572
aS'homes'
p1573
aS'In'
p1574
aS'the'
p1575
aS'case'
p1576
aS'that'
p1577
aS'this'
p1578
aS'research'
p1579
aS'takes'
p1580
ag18
aS'long'
p1581
aS'time'
p1582
aS"You'll"
p1583
aS'be'
p1584
aS'seeing'
p1585
ag18
aS'change'
p1586
aS'In'
p1587
aS"Facebook's"
p1588
aS'direction'
p1589
aS'soon'
p1590
aS'At'
p1591
aS'the'
p1592
aS'end'
p1593
aS'of'
p1594
aS'my'
p1595
aS'meeting'
p1596
ag19
aS'thanked'
p1597
aS'the'
p1598
aS'veterans'
p1599
aS'For'
p1600
aS'their'
p1601
aS'service'
p1602
aS'and'
p1603
aS'told'
p1604
aS'them'
p1605
aS'that'
p1606
aS'soon'
p1607
aS'no'
p1608
aS'one'
p1609
aS'wiki'
p1610
aS'needlessly'
p1611
aS'me'
p1612
aS'In'
p1613
aS'warfare'
p1614
asS'processed/ae5942f9fc58e926e34d715b3afa42d1a91030d00010d57cc98daef719ceb93c.jpg'
p1615
(lp1616
S'My'
p1617
aS'meme'
p1618
aS'about'
p1619
aS'my'
p1620
aS"mother's"
p1621
aS'car'
p1622
aS'THE'
p1623
aS'CHEVROLET'
p1624
aS'DORSA'
p1625
aS'THAT'
p1626
ag19
ag18
ag18
ag18
ag18
aS'~-'
p1627
aS'5";'
p1628
aS'What'
p1629
aS'foreigners'
p1630
aS'What'
p1631
aS'my'
p1632
aS'mother'
p1633
aS'thanks'
p1634
aS'the'
p1635
aS'How'
p1636
ag19
aS'see'
p1637
aS'the'
p1638
aS'car'
p1639
aS'outside'
p1640
aS'Brazil'
p1641
aS'Dian'
p1642
aS'car'
p1643
aS'Is'
p1644
aS'The'
p1645
aS'car'
p1646
aS'In'
p1647
aS'reality'
p1648
asS'processed/ecc469191a7ff9b45752a94e14e80382c9d0c5b42f1bea9f37b360dc0e3bfc62.jpg'
p1649
(lp1650
S'Spotify'
p1651
aS'Upload-n9'
p1652
aS'your'
p1653
aS'mum'
p1654
aS'discography'
p1655
aS'In'
p1656
aS'Spoky'
p1657
aS'Upload-n9'
p1658
aS'your'
p1659
aS'has'
p1660
aS'albums'
p1661
aS'and'
p1662
aS'EPS'
p1663
aS'In'
p1664
aS'Spoky'
p1665
aS'Upload-n9'
p1666
ag18
aS'gmamsl'
p1667
aS'huts'
p1668
aS'album'
p1669
aS'Io'
p1670
aS'Spoky'
p1671
aS'Upload-n9'
p1672
ag18
aS'Iva'
p1673
aS'album'
p1674
aS'In'
p1675
aS'Spoky'
p1676
aS'Upload-n9'
p1677
ag18
aS'Iva'
p1678
aS'acousnc'
p1679
aS'cover'
p1680
ag81
ag18
aS'song'
p1681
aS'In'
p1682
aS'nobody'
p1683
aS'cams'
p1684
aS'about'
p1685
aS'Io'
p1686
aS'Spoky'
p1687
aS'and'
p1688
aS'absolute'
p1689
aS'homme'
p1690
aS'also'
p1691
asS'processed/c12c6aca9d9494b7975f9241172c2070d2e90ecf712cd3e27efcf20bf47072ff.jpg'
p1692
(lp1693
S'BLM'
p1694
aS'Great'
p1695
aS'year'
p1696
aS'$Spotify'
p1697
ag1075
ag544
ag18
aS'In'
p1698
aS'2017'
p1699
aS'you'
p1700
aS'listened'
p1701
aS'for'
p1702
aS'minutes'
p1703
aS'to'
p1704
ag18
aS'different'
p1705
aS'song'
p1706
aS'and'
p1707
aS'of'
p1708
aS'different'
p1709
aS'artist'
p1710
aS'Along'
p1711
aS'the'
p1712
aS'way'
p1713
aS'you'
p1714
aS'explored'
p1715
aS'genre'
p1716
asS'processed/72fafc7670da77ed405669c5ab627406804e72b45c980d2b2eba2a74abb9d922.png'
p1717
(lp1718
S'ACT'
p1719
ag20
aS'U'
p1720
ag19
aS'C'
p1721
ag1071
ag39
aS'Y'
p1722
asS'processed/34971cce93cd021803ca0298b79980d64712ca3af1584d5caf4055faee124ad1.jpg'
p1723
(lp1724
S'dont'
p1725
aS'lose'
p1726
aS'your'
p1727
aS'noodle'
p1728
asS'processed/a0560f3e5d5435993d9e1fe0f0b1cf48f1116197f65c5b384cb5d7c8f89a9992.jpg'
p1729
(lp1730
S'When'
p1731
aS'my'
p1732
aS'friends'
p1733
aS'invite'
p1734
aS'me'
p1735
aS'to'
p1736
aS'play'
p1737
aS'sports'
p1738
aS'but'
p1739
ag22
aS"didn't"
p1740
aS'move'
p1741
aS'from'
p1742
aS'my'
p1743
aS'chair'
p1744
aS'for'
p1745
ag18
aS'month'
p1746
asS'processed/815bc3cb64c6ac10fd72bd6c56785f3112205cc406185ff1da869af4c6ede946.png'
p1747
(lp1748
S'Real'
p1749
aS'dangers'
p1750
aS'These'
p1751
aS'are'
p1752
aS'the'
p1753
aS'real'
p1754
aS'dangers'
p1755
aS'of'
p1756
aS'marijuana'
p1757
asS'processed/6c136c16a44d098409af2dd63b886b639c5270c78f6e00fbae2c47341b2a97ff.jpg'
p1758
(lp1759
S':r:empiredidnothingwrong'
p1760
aS'When'
p1761
aS'youre'
p1762
ag18
aS'democratically-elected'
p1763
aS'secular'
p1764
aS'leader'
p1765
aS'who'
p1766
aS'removes'
p1767
ag18
aS'cult'
p1768
aS'from'
p1769
aS'its'
p1770
aS'undue'
p1771
aS'position'
p1772
aS'of'
p1773
aS'power'
p1774
aS'after'
p1775
aS'they'
p1776
aS'horribly'
p1777
aS'disfigure'
p1778
aS'you'
p1779
aS'in'
p1780
aS'an'
p1781
aS'assassination'
p1782
aS'attempt'
p1783
aS'because'
p1784
aS'youre'
p1785
ag18
aS'different'
p1786
aS'religion'
p1787
aS'but'
p1788
aS'you'
p1789
aS'go'
p1790
aS'down'
p1791
aS'in'
p1792
aS'history'
p1793
aS'as'
p1794
aS'the'
p1795
aS'bad'
p1796
aS'guy'
p1797
asS'processed/8ab22a13171f3ce3061bedb5c7897a99e7894c9a827c8ac6a9e948da069d4318.jpg'
p1798
(lp1799
S'Cat'
p1800
aS'owners'
p1801
aS'will'
p1802
aS'understand'
p1803
asS'processed/bc9358ccc2e7e462ef6d71f9fecb2af5f69963cfe7a0673117f36eea6a596bf2.png'
p1804
(lp1805
S'The'
p1806
aS'Tastes'
p1807
aS'of'
p1808
aS'Home'
p1809
ag18
aS'wuzuwm;'
p1810
ag129
aS'mm'
p1811
aS'Hr'
p1812
aS'sky'
p1813
ag83
ag39
ag19
ag129
ag18
ag95
aS'move'
p1814
ag544
ag83
ag18
aS'in'
p1815
ag83
aS'h'
p1816
ag372
ag19
ag83
aS'my'
p1817
aS'an'
p1818
ag18
aS'yg'
p1819
ag18
ag372
aS'we'
p1820
aS'MWA'
p1821
aS'we'
p1822
aS'Ism'
p1823
ag544
aS'Irv/Mm'
p1824
aS'In'
p1825
ag18
ag372
aS'1ul'
p1826
aS")'"
p1827
ag83
aS'of'
p1828
aS'um'
p1829
aS'VEU'
p1830
aS'u~13|nawlu'
p1831
aS'or'
p1832
aS'of'
p1833
aS'mp'
p1834
ag544
aS'SKU'
p1835
aS'x'
p1836
aS'mm'
p1837
aS'nnw'
p1838
ag372
aS'awn'
p1839
ag18
aS'aux'
p1840
aS'1n-'
p1841
aS'xmv-nm'
p1842
ag544
ag18
aS'yay'
p1843
ag18
ag18
aS'awn-v'
p1844
ag18
ag129
ag19
asS'processed/eeaf7b874b7719ff7f177bf552364034e5ad518f3d8594fd62be1719442a85a5.png'
p1845
(lp1846
S'He'
p1847
aS'is'
p1848
aS'literally'
p1849
aS'fiddling'
p1850
aS'with'
p1851
aS'us'
p1852
aS"4'"
p1853
aS'sq'
p1854
aS'wry'
p1855
aS'\\\'ZI~I1~UII~I\\|\'(I\\\'\'h\\"J(l\'h()()k||\\I\'l\\'
p1856
aS"hl\\l'b\\('31'0l(l'(l"
p1857
aS'lu'
p1858
aS'ImLLrlw'
p1859
aS'\\lv<~~n;;-r'
p1860
aS'Jpn'
p1861
aS'un'
p1862
aS"lhl'"
p1863
aS'mnbrlv'
p1864
aS'tlmunw'
p1865
aS'Ik'
p1866
aS'ltr'
p1867
aS'm-tl'
p1868
aS'and'
p1869
ag18
aS"031(l'(l\\(l"
p1870
aS'that'
p1871
aS'my'
p1872
aS'ring'
p1873
aS'utah'
p1874
aS'lu'
p1875
aS'msrurl'
p1876
aS"Inullh'l"
p1877
aS'ADD'
p1878
aS'um'
p1879
ag19
aS'bu'
p1880
aS'HKJ'
p1881
aS'hut'
p1882
aS'ulrlml'
p1883
aS'"\\\\\'(-'
p1884
aS'mlx'
p1885
aS'lwlwn-'
p1886
aS'this'
p1887
aS'of'
p1888
ag129
aS"hl'lh'"
p1889
aS'who'
p1890
aS'win'
p1891
aS'xx'
p1892
aS'Alum'
p1893
aS'than'
p1894
aS'man'
p1895
aS'mm'
p1896
aS'mm'
p1897
aS'\\zvn'
p1898
aS'nl'
p1899
aS"I'\\\\'l\\'<l\\'<)1"
p1900
aS'lam-hook'
p1901
aS'and'
p1902
aS'that'
p1903
aS'mtwuumg'
p1904
aS'uhpx'
p1905
aS'RMR'
p1906
aS'uflou-(l'
p1907
aS'utah'
p1908
aS'"(k-tilt'
p1909
aS"Il('\\l"
p1910
aS'lntust-(l'
p1911
aS"I'KDI'III'IH"
p1912
aS'my'
p1913
aS"\\\\I('"
p1914
aS'mr'
p1915
aS'push'
p1916
aS'usnvwrmn1l-Lm-hnnkmu]'
p1917
aS'11'
p1918
aS'not'
p1919
aS'of'
p1920
ag18
aS'not'
p1921
aS'Evrsnn'
p1922
aS'Ind'
p1923
aS'l\\(-'
p1924
aS'now'
p1925
aS'rm'
p1926
aS'to'
p1927
aS'hr'
p1928
aS'gunl'
p1929
aS'Om'
p1930
aS'gnus'
p1931
aS'anal'
p1932
aS"l1\\(('\\~llfl]\\"
p1933
aS'ru'
p1934
aS'Mekn'
p1935
ag372
aS'puny'
p1936
aS'n]|'
p1937
aS"\\'"
p1938
aS'\\\\('
p1939
aS'lung'
p1940
ag160
aS'use'
p1941
aS'or'
p1942
aS'In'
p1943
aS'nuke'
p1944
aS'll'
p1945
aS'"\\l\'tlllvu'
p1946
ag18
aS'ms'
p1947
aS'in'
p1948
aS'want'
p1949
aS'allow'
p1950
ag18
aS'up'
p1951
aS'Because'
p1952
aS'their'
p1953
aS'metabolism'
p1954
aS'Is'
p1955
aS'variable'
p1956
aS'and'
p1957
aS'generally'
p1958
aS'below'
p1959
aS'that'
p1960
aS'of'
p1961
aS'homeothermic'
p1962
aS'animals'
p1963
aS'sustained'
p1964
aS'high-energy'
p1965
aS'actrvrtles'
p1966
aS'like'
p1967
aS'powered'
p1968
aS'light'
p1969
aS'In'
p1970
aS'large'
p1971
aS'animals'
p1972
aS'or'
p1973
aS'maintaining'
p1974
ag18
aS'large'
p1975
aS'brain'
p1976
aS'Is'
p1977
aS'generally'
p1978
aS'beyond'
p1979
aS'porkllotherm'
p1980
aS'animals'
p1981
aS'[6]'
p1982
aS'The'
p1983
aS'metabolism'
p1984
aS'ol'
p1985
aS'porkllotherms'
p1986
aS'favors'
p1987
aS'strategies'
p1988
aS'such'
p1989
aS'as'
p1990
aS'SRTS'
p1991
aS'and-wart'
p1992
aS'hunting'
p1993
aS'over'
p1994
aS'chasing'
p1995
aS'prey'
p1996
aS'for'
p1997
aS'larger'
p1998
aS'animals'
p1999
aS'With'
p2000
aS'high'
p2001
aS'movement'
p2002
aS'cost'
p2003
aS'As'
p2004
aS'they'
p2005
aS'do'
p2006
aS'not'
p2007
aS'use'
p2008
aS'then'
p2009
aS'metabolisms'
p2010
aS'to'
p2011
aS'heat'
p2012
aS'or'
p2013
aS'cool'
p2014
aS'themselves'
p2015
aS'total'
p2016
aS'energy'
p2017
aS'requirement'
p2018
aS'over'
p2019
aS'time'
p2020
aS'IS'
p2021
aS'low'
p2022
aS'For'
p2023
aS'the'
p2024
aS'same'
p2025
aS'bowelght'
p2026
aS'porkllotherms'
p2027
aS'need'
p2028
aS'only'
p2029
ag18
aS'to'
p2030
aS'10%'
p2031
aS'of'
p2032
aS'the'
p2033
aS'energy'
p2034
aS'of'
p2035
aS'homeotherms'
p2036
aS'[7]'
p2037
asS'processed/0a4ae3b0afde52bf09404e33885d20691b3bee803eb29a7cab60c7fd4aa2e44a.png'
p2038
(lp2039
S'Roses'
p2040
aS'are'
p2041
aS'red'
p2042
aS'my'
p2043
aS'dad'
p2044
aS'is'
p2045
aS'Canadian'
p2046
aS'Mark'
p2047
aS'Zuckerberg'
p2048
aS'is'
p2049
aS'taking'
p2050
aS'classes'
p2051
aS'with'
p2052
aS'behavioural'
p2053
aS'psychologists'
p2054
aS'to'
p2055
aS'appear'
p2056
aS'more'
p2057
aS'human'
p2058
aS'after'
p2059
aS'wave'
p2060
aS'of'
p2061
aS'internet'
p2062
aS'memes'
p2063
aS'portray'
p2064
aS'him'
p2065
aS'as'
p2066
aS'robotic'
p2067
aS'or'
p2068
aS'alien'
p2069
aS'Zuckerberg'
p2070
aS'is'
p2071
aS'facing'
p2072
ag18
aS'public'
p2073
aS'relations'
p2074
aS'crisis'
p2075
aS'after'
p2076
aS'insulting'
p2077
aS'wave'
p2078
aS'of'
p2079
aS'internet'
p2080
aS'memes'
p2081
asS'processed/60ec579dbaa23f329e7a68a8578e853eca2d9b9faae497f6a12260813e5d1ca8.jpg'
p2082
(lp2083
g569
ag21
ag388
ag79
aS'gal'
p2084
aS'sex'
p2085
aS'do'
p2086
aS'body'
p2087
aS'pilow'
p2088
aS'coconut'
p2089
asS'processed/f2304ccec5a7d83c315ed35df314fcb08d5faee0eb0b35f3b97bd60176b4fd81.png'
p2090
(lp2091
S'The'
p2092
aS'League'
p2093
aS'Community'
p2094
aS'after'
p2095
aS"Varus's"
p2096
aS'lore'
p2097
aS'update'
p2098
asS'processed/fa9d828553a010a373f6c40daca16b21bcba102231ffe95dfa7df4c2522257bc.jpg'
p2099
(lp2100
S'Water'
p2101
aS'the'
p2102
aS'egg'
p2103
aS'All'
p2104
aS'WA'
p2105
aS'VS'
p2106
aS'water'
p2107
aS'thy'
p2108
aS'egg'
p2109
aS'nerehaven'
p2110
aS'oust'
p2111
aS'do'
p2112
aS'In'
p2113
ag18
ag18
ag18
ag18
aS'mane'
p2114
aS'you'
p2115
aS'so'
p2116
aS'much'
p2117
asS'processed/9ff34c44f2117732aaefff0bfe93dcb74c606bd42d31269a9625e117f4cad0d7.jpg'
p2118
(lp2119
S'Merry'
p2120
aS'Christmas'
p2121
aS'ya'
p2122
aS'Filthy'
p2123
aS'Animal'
p2124
asS'processed/ac9d1126adddd439b233206553c287dfb3c6dee6cab8d0f39a7b859384ddd15e.png'
p2125
(lp2126
S'Dating'
p2127
aS'is'
p2128
aS'simple'
p2129
aS'him'
p2130
aS'what'
p2131
aS'size'
p2132
aS'fry'
p2133
aS'you'
p2134
aS'want'
p2135
aS'me'
p2136
aS'oh'
p2137
aS'just'
p2138
ag18
aS'small'
p2139
aS'him'
p2140
aS'shell'
p2141
aS'have'
p2142
ag18
aS'large'
p2143
aS'me'
p2144
asS'processed/c7750386e3365080cc8a94dd612edee52783122ef1ca5d1c5d531e936fe9c553.png'
p2145
(lp2146
S'"team'
p2147
aS'sucks"'
p2148
aS'mm'
p2149
aS'so'
p2150
ag18
aS'>'
p2151
aS'ens'
p2152
ag703
ag851
aS'lurked'
p2153
aS'so'
p2154
ag81
aS'OE'
p2155
aS'OE'
p2156
aS'Cru'
p2157
aS'lurk-0500'
p2158
ag18
ag18
ag18
aS'of'
p2159
aS'of'
p2160
ag19
aS'ERA'
p2161
aS'OE'
p2162
aS'OE'
p2163
aS'WISH'
p2164
aS'GEO-ll'
p2165
aS'BIG'
p2166
aS'ILII'
p2167
aS'mll'
p2168
aS'EIQ-ll'
p2169
aS'50'
p2170
ag19
ag18
aS'no'
p2171
ag18
ag21
ag22
ag81
ag18
ag18
ag18
aS'or'
p2172
aS'nor-uses'
p2173
ag161
ag18
ag18
aS'Van'
p2174
aS'2001on'
p2175
aS'an'
p2176
ag18
aS'Ia'
p2177
aS'lurked'
p2178
aS'so'
p2179
ag81
aS'OE'
p2180
aS'Cru'
p2181
aS'lurked'
p2182
aS'so'
p2183
ag81
aS'OE'
p2184
aS'OE'
p2185
aS'Ell-'
p2186
aS'my'
p2187
ag18
aS'anon'
p2188
aS'nunni'
p2189
aS'in'
p2190
aS'Do'
p2191
asS'processed/0fbd5e0906341b42bb2232cd29163bb964b7d6d3efee7eeb6a5ff951b46929d1.jpg'
p2192
(lp2193
S'Get'
p2194
aS'It'
p2195
aS'When'
p2196
aS'you'
p2197
aS'listen'
p2198
aS'to'
p2199
aS'War'
p2200
aS'Metal'
p2201
aS'for'
p2202
aS'the'
p2203
aS'first'
p2204
aS'time'
p2205
aS'ab'
p2206
aS'underground'
p2207
aS'hone'
p2208
aS'ka'
p2209
aS'may'
p2210
aS'aa'
p2211
aS'gay'
p2212
ag1816
asS'processed/d4ef5c5bace3a13fdf2284bab0e5d4d9adf3638cf0af9d9678f94a2460a9fc44.png'
p2213
(lp2214
S'The'
p2215
aS'state'
p2216
aS'of'
p2217
aS'Reddit'
p2218
ag18
aS'~__'
p2219
aS'got'
p2220
aS'real'
p2221
asS'processed/dd36bfe6b52e5a251b6acc0705a23aaec6977069245b19f7331818a78cc39e70.jpg'
p2222
(lp2223
S'Arabic'
p2224
aS'101'
p2225
aS'(for'
p2226
aS'metal'
p2227
aS'fans)'
p2228
aS'II'
p2229
aS'Sprint'
p2230
aS'Wl-FI'
p2231
aS'of'
p2232
aS'800'
p2233
aS'AM'
p2234
ag18
aS'of'
p2235
aS'36%'
p2236
ag19
ag18
aS'announce'
p2237
aS'the'
p2238
aS'death'
p2239
aS'of'
p2240
aS'you'
p2241
ag18
aS'announce'
p2242
aS'the'
p2243
aS'death'
p2244
aS'of'
p2245
aS'you'
p2246
asS'processed/38b19b0b0300893ab9c29c5bcac0b2990b9fb36c5b06010cf90943939fcdf814.png'
p2247
(lp2248
S'Passing'
p2249
aS'down'
p2250
aS'knowledge'
p2251
aS'Advice'
p2252
aS'from'
p2253
aS'one'
p2254
aS'EA'
p2255
aS'exec'
p2256
aS'to'
p2257
aS'another'
p2258
aS'435A'
p2259
asS'processed/4bf33a8c01c9b292a8a393f6f4f8552d457c028d6a5588b148cf04eed7c6f27e.jpg'
p2260
(lp2261
S'Liberal'
p2262
aS'media'
p2263
aS'are'
p2264
aS'reaching'
p2265
aS'Racism'
p2266
aS'levels'
p2267
aS'that'
p2268
aS"shouldn't"
p2269
aS'even'
p2270
aS'be'
p2271
aS'possible'
p2272
aS'SNUFPOSH'
p2273
aS'am'
p2274
aS'via'
p2275
aS'am'
p2276
aS'more'
p2277
aS'Ruin'
p2278
aS'young'
p2279
ag19
aS'Donavon'
p2280
aS'sway'
p2281
ag160
aS'nm'
p2282
aS'mm'
p2283
aS'Sugguu'
p2284
ag83
aS'Don'
p2285
ag1836
aS'up'
p2286
aS'of'
p2287
aS'In'
p2288
aS'and'
p2289
aS'In'
p2290
aS'hum'
p2291
asS'processed/eee26e0fc23f8e2af8b618c052fcae2b9409cf58ab74ed17183cf7633e794c7b.png'
p2292
(lp2293
S'Dory'
p2294
aS'puts'
p2295
aS'the'
p2296
aS'"D"'
p2297
aS'in'
p2298
aS'disney'
p2299
asS'processed/1927a79e8fe60259fae3f9f49d75ccd9acd744ce9024b1fa5f42a0dea41ea240.jpg'
p2300
(lp2301
S'In'
p2302
aS'the'
p2303
aS'Soviet'
p2304
aS'union'
p2305
aS'How'
p2306
aS'to'
p2307
aS'learn'
p2308
aS'history'
p2309
asS'processed/d62a8a2f44ca9a555fdee72919ca6628457c6c5b7db46d90f9b9989a565119f4.png'
p2310
(lp2311
S'Slam'
p2312
aS'Metal'
p2313
aS'band'
p2314
aS'logos'
p2315
aS'in'
p2316
ag18
aS'nutshell'
p2317
as.