(dp0
S'processed/3a22120e3288245b8a30f0343e9afb572fcbad59a1a167e985ff0bfd14ee11a7.png'
p1
(lp2
S'Found'
p3
aS'this'
p4
aS'Progressive'
p5
aS'Metal'
p6
aS'drummers'
p7
aS'be'
p8
aS'like'
p9
asS'processed/3f68c9343f455b0aa9d3bac25c5b358e45f851bb467e543cd09f44edd5b48b5c.jpg'
p10
(lp11
S'WTF'
p12
aS'is'
p13
aS'this'
p14
aS'level'
p15
aS'l'
p16
ag16
aS'll'
p17
aS'a'
p18
ag16
aS'I'
p19
ag19
ag18
ag19
aS'Q'
p20
ag19
ag19
aS'E'
p21
aS'i'
p22
ag21
asS'processed/b1b739c8893f6410473e210e4677f99ad8e4cbfdb75606e22a10938be6205899.jpe'
p23
(lp24
S'And'
p25
aS'stay'
p26
aS'dead'
p27
aS'When'
p28
aS'you'
p29
aS'see'
p30
ag18
aS'dead'
p31
aS'meme'
p32
aS'starting'
p33
aS'to'
p34
aS'come'
p35
aS'back'
p36
aS'to'
p37
aS'life'
p38
ag18
ag18
ag18
ag18
ag18
aS'L'
p39
aS'mumu'
p40
aS'Hcr'
p41
aS'my'
p42
aS'man'
p43
asS'processed/e5c7110ef87ebe7ba471f5fbaffa9209cf9283e35a7477b3b09f976b2d1c2224.png'
p44
(lp45
S'The'
p46
aS'world'
p47
aS'of'
p48
aS'survival'
p49
aS'games'
p50
aS'Good'
p51
aS'Day'
p52
asS'processed/b6b9f54005b4f8a79e4240f1dcaa3644f02a447099cadb033e1fcdf83c59cb31.jpg'
p53
(lp54
S'What'
p55
ag18
aS'coincidence'
p56
aS'People'
p57
aS'with'
p58
aS'names'
p59
aS'that'
p60
aS'match'
p61
aS'their'
p62
aS'profession'
p63
asS'processed/7e0ed41981fbb2a615b598aa4427228e9f6fd1a153920d441d08661ed82a3084.png'
p64
(lp65
S'Mama'
p66
aS'always'
p67
aS'said'
p68
aS'life'
p69
aS'was'
p70
aS'like'
p71
ag18
aS'box'
p72
aS'of'
p73
aS'chocolates'
p74
ag18
aS'V'
p75
ag18
aS'my'
p76
ag18
ag18
aS'of'
p77
ag18
aS'A'
p78
aS'In'
p79
aS'o'
p80
aS'w'
p81
aS'of'
p82
ag19
aS'Ni'
p83
ag18
aS'VU'
p84
aS'nigh'
p85
aS'UIIIIUrX'
p86
aS'IxtgLM'
p87
aS'Iml'
p88
aS'Rln'
p89
aS'mx'
p90
ag18
ag18
ag78
ag18
ag18
aS'of'
p91
ag18
aS'of'
p92
ag18
ag18
aS'J'
p93
asS'processed/b5889b46ccf7f0b4c8676076300aca002539513fc7251d0f2ef9f35fd21b1ef7.jpg'
p94
(lp95
S'Man'
p96
aS's'
p97
aS'never'
p98
aS'hot'
p99
asS'processed/bdbf902387de54ff9e3f92d2eccb4d4f73da6bb382301bfd7e195e02bd92d929.jpg'
p100
(lp101
S'Y'
p102
aS'all'
p103
ag18
aS'bunch'
p104
aS'of'
p105
aS'liars'
p106
aS'if'
p107
aS'you'
p108
aS'deny'
p109
aS'doing'
p110
aS'this'
p111
aS'Website'
p112
aS'your'
p113
aS'order'
p114
aS'had'
p115
aS'ship'
p116
aS'Me'
p117
asS'processed/f83c40e9e9808d7b7f0c2577a9fc9fe617fb5bd05f8c065cfee30a4d98a95d3b.jpg'
p118
(lp119
S'Varg'
p120
aS'never'
p121
aS'disappoints'
p122
aS'Survival'
p123
aS'Tips'
p124
aS'For'
p125
aS'No'
p126
aS'Nui'
p127
aS'Nuvamhav'
p128
ag18
ag18
aS'u'
p129
ag18
ag19
aS'magma'
p130
aS'k'
p131
ag18
asS'processed/21812c641b09387a1ea9d0e55d4c3f3a2ab560e16dae6370c4ffc678cc505cc0.jpg'
p132
(lp133
S'Only'
p134
aS'M'
p135
aS'Yasuo'
p136
aS'mains'
p137
aS'will'
p138
aS'get'
p139
aS'this'
p140
asS'processed/60cc53a358fb20bbb14f6640e0ed18d63e57ad29a061a1fd07aa56bec0eb1ac9.jpg'
p141
(lp142
S'The'
p143
aS'real'
p144
aS'question'
p145
aS'this'
p146
aS'month'
p147
aS'IS'
p148
aS'WVGlEf'
p149
aS'MK'
p150
asS'processed/ba2b97ee314660969ddae8a74badd5e0b99705d73929478df88438513dfbe63e.jpg'
p151
(lp152
S'While'
p153
aS'it'
p154
ag97
aS'low'
p155
aS'Buy'
p156
aS'Buy'
p157
aS'Buy'
p158
aS'going'
p159
ag18
aS'm'
p160
aS'g'
p161
aS'humid'
p162
ag18
aS'HIS'
p163
asS'processed/9a675ba744161377a4ea42354b50e8d78cb8c8ecf383bf13beb506212c558cb9.png'
p164
(lp165
S'Bigger'
p166
aS'than'
p167
aS'Mayweather'
p168
aS'vs'
p169
aS'Mcgregor'
p170
aS'VS'
p171
aS'of'
p172
aS'WIN'
p173
aS'tell'
p174
aS'you'
p175
aS'his'
p176
aS'convictions'
p177
ag18
aS'Builds'
p178
aS'electric'
p179
aS'cars'
p180
ag18
aS'Uses'
p181
aS'Twitter'
p182
aS'of'
p183
aS'worried'
p184
aS'about'
p185
aS'malevolent'
p186
aS'ai'
p187
aS'of'
p188
aS'WIN'
p189
aS'politely'
p190
aS'disagree'
p191
ag18
aS'Understands'
p192
aS'personal'
p193
aS'space'
p194
ag18
aS'Steps'
p195
aS'on'
p196
aS'the'
p197
aS'shoulders'
p198
aS'of'
p199
aS'his'
p200
aS'forbearers'
p201
ag18
aS'Solar'
p202
aS'Power'
p203
ag18
aS'possing'
p204
aS'had'
p205
ag18
aS'hair'
p206
aS'transplant'
p207
ag18
aS'His'
p208
aS'company'
p209
aS'will'
p210
aS'break'
p211
aS'open'
p212
aS'the'
p213
aS'armament'
p214
aS'for'
p215
aS'all'
p216
aS'of'
p217
aS'humanity'
p218
aS'of'
p219
aS'worried'
p220
aS'about'
p221
aS'offendant'
p222
aS'you'
p223
ag18
aS'Eats'
p224
aS'toast'
p225
ag18
aS'Hates'
p226
aS'Twitter'
p227
aS'of'
p228
aS'Cannot'
p229
aS'compute'
p230
aS'worry'
p231
aS'of'
p232
aS'WIN'
p233
aS'ban'
p234
aS'dissent'
p235
aS'of'
p236
aS'Watches'
p237
aS'you'
p238
aS'constantly'
p239
ag18
aS'Steps'
p240
aS'on'
p241
aS'the'
p242
aS'throats'
p243
aS'of'
p244
aS'your'
p245
aS'loved'
p246
aS'ones'
p247
aS'of'
p248
aS'Absolute'
p249
aS'power'
p250
ag18
aS'possing'
p251
aS'an'
p252
aS'eldritch'
p253
aS'horror'
p254
ag18
aS'His'
p255
aS'company'
p256
aS'will'
p257
aS'break'
p258
aS'humanity'
p259
asS'processed/618d619fabd7cee63a2b0580297b61d9a69e849770070a16366e4683611f46e2.jpg'
p260
(lp261
S'Reposted'
p262
aS'from'
p263
aS'somewhere'
p264
aS'takes'
p265
aS'lill'
p266
asS'processed/8583e842a199c4b41b20c3144c1e3945d79df6e4ea18541e121dd140898f33c9.jpg'
p267
(lp268
S'Poor'
p269
aS'disturbed'
p270
aS'Oh'
p271
aS'Wah'
p272
aS'Ah'
p273
aS'Ah'
p274
aS'Ah'
p275
aS'Ah'
p276
aS'Death'
p277
aS'Usual'
p278
aS'Llcnksys'
p279
ag18
aS'YoJube'
p280
aS'Sounds'
p281
aS'of'
p282
aS'me'
p283
aS'to'
p284
aS'of'
p285
aS'Monkey'
p286
ag18
aS'Tube'
p287
ag129
ag18
ag160
aS'Icknsss'
p288
ag16
ag129
aS'Icv'
p289
aS'Idecl'
p290
aS'yote'
p291
asS'processed/c261ab7e227bd78ecc964238b102e38f2931fa4f88e4d8c54ee87d78bcc8c166.jpg'
p292
(lp293
S'Things'
p294
aS'in'
p295
aS'common'
p296
aS'counselor'
p297
aS'lets'
p298
aS'start'
p299
aS'with'
p300
aS'something'
p301
aS'you'
p302
aS'both'
p303
aS'have'
p304
aS'in'
p305
aS'common'
p306
aS'guy'
p307
aS'well'
p308
aS'neither'
p309
aS'of'
p310
aS'us'
p311
aS'give'
p312
aS'blowjobs'
p313
aS'counselor'
p314
aS'll'
p315
aS'damn'
p316
aS'got'
p317
aS'em'
p318
asS'processed/2ba5e18df1d5bc2eb84ecc3663441b29847a8a8737cf65a37b243241a93e9437.png'
p319
(lp320
S'Imagine'
p321
aS'what'
p322
aS'your'
p323
aS'body'
p324
aS'could'
p325
aS'do'
p326
aS'Fruit'
p327
aS'Charity'
p328
aS'aunts'
p329
aS'of'
p330
ag18
ag18
ag18
aS'YOU'
p331
ag18
aS'RE'
p332
aS'ALMOST'
p333
aS'ME'
p334
aS'vunxn'
p335
ag160
ag160
aS'pm'
p336
ag18
aS'nun'
p337
aS'am'
p338
aS'my'
p339
aS'mung'
p340
ag135
aS'rohito'
p341
ag97
aS'Solace'
p342
aS'Acute'
p343
aS'Chakram'
p344
aS'umu'
p345
aS'yum'
p346
aS'lrumlh'
p347
aS'umu'
p348
aS'um'
p349
aS'nun'
p350
aS'mm'
p351
aS'nmum'
p352
aS'brute'
p353
aS'hurry'
p354
aS'than'
p355
aS'Kuhn'
p356
aS'Pl'
p357
aS'iDI'
p358
aS'burst'
p359
aS'lhlm'
p360
aS'Gittin'
p361
aS'plll'
p362
aS'Root'
p363
aS'Chakram'
p364
aS'ennui'
p365
aS'mud'
p366
ag18
ag129
aS'unm'
p367
aS'mm'
p368
aS'mm'
p369
aS'nn'
p370
aS'upo'
p371
aS'ye'
p372
asS'processed/bf38530fa023913b3a2b44c7a9fab1d580ec7ef5df2674bd0e86b200e38cd3f2.jpg'
p373
(lp374
S'What'
p375
aS'is'
p376
aS'Blue'
p377
aS'Essence'
p378
aS'Zoi'
p379
ag18
ag18
ag18
ag19
aS'r'
p380
aS'mm'
p381
aS'ASPECT'
p382
aS'or'
p383
aS'Ll'
p384
ag81
ag18
ag20
ag18
aS'WITH'
p385
aS'of'
p386
aS'Not'
p387
aS'clear'
p388
aS'not'
p389
aS'clear'
p390
ag18
ag19
ag18
aS'Ve'
p391
aS'T'
p392
asS'processed/7f2749b645663657e0a663b5ef83abb4a04adf824104567b2d0a564c87bc9546.jpg'
p393
(lp394
S'Bicycle'
p395
aS'frame'
p396
aS'materials'
p397
aS'carbon'
p398
aS'fiber'
p399
aS'aluminium'
p400
aS'quality'
p401
aS'steel'
p402
aS'alloys'
p403
aS'steel'
p404
aS'plumbing'
p405
aS'pipe'
p406
aS'cast'
p407
aS'iron'
p408
aS'stone'
p409
aS'plastic'
p410
asS'processed/c4e15eedbe6aef1bc151ee7d2c338d406fc0b1f34b2e22ffa8cbaa607c894b57.png'
p411
(lp412
S'Federal'
p413
aS'Cockblock'
p414
aS'Commission'
p415
asS'processed/9e93a745a2ba30ca2d5a47f529f21b2642ef3b5bd1bd1e83ade29068ca319051.png'
p416
(lp417
S'Icy'
p418
aS'boi'
p419
aS'Who'
p420
aS'would'
p421
aS'In'
p422
aS'no'
p423
aS'Ioldiun'
p424
aS'Iron'
p425
aS'THC'
p426
aS'largest'
p427
aS'lay'
p428
aS'in'
p429
ag160
asS'processed/eb2056fe487d3d9ee94d2818b114fabdb258f80dea4ba06d691807a31bf9ca51.jpg'
p430
(lp431
S'Feel'
p432
aS'old'
p433
aS'yet'
p434
aS'Remember'
p435
aS'Eleven'
p436
ag18
aS'Mike'
p437
aS'Here'
p438
aS'they'
p439
aS'are'
p440
aS'now'
p441
aS'Feel'
p442
aS'old'
p443
aS'yet'
p444
asS'processed/3fd5347beb476fea189c8cbfcd283028243bf16748bba822e7c5bf500ad6e284.jpg'
p445
(lp446
g19
aS'am'
p447
aS'on'
p448
aS'me'
p449
aS'way'
p450
aS'to'
p451
aS'Himalyas'
p452
aS'when'
p453
aS'ur'
p454
aS'duck'
p455
aS'won'
p456
aS'Gev'
p457
aS'up'
p458
aS'char'
p459
ag18
aS'nu'
p460
aS'so'
p461
ag129
aS'decide'
p462
aS'to'
p463
aS'become'
p464
ag18
aS'monk'
p465
aS'for'
p466
ag18
aS'month'
p467
asS'processed/5deb5a725b1e626a25ecadf241a46c485f994d0c1f87090363ea1d2087aceebb.jpg'
p468
(lp469
S'Back'
p470
aS'the'
p471
aS'lecture'
p472
aS'hand'
p473
ag18
aS'lui'
p474
ag129
aS'you'
p475
aS'Inch'
p476
aS'il'
p477
aS'silos'
p478
aS'aanl'
p479
aS'll'
p480
aS'Ioamill'
p481
ag19
aS'numina'
p482
aS'unemisaliuemat'
p483
ag18
aS'anlllille'
p484
aS'this'
p485
aS'Anna'
p486
asS'processed/adc4fe2bb4b9f8aebaa7330ddb28a3de6f69154b1d940c55782d465fb57488a7.png'
p487
(lp488
g19
aS'knew'
p489
aS'the'
p490
aS'new'
p491
aS'Jhin'
p492
aS'figurine'
p493
aS'reminded'
p494
aS'me'
p495
aS'of'
p496
aS'something'
p497
asS'processed/655636cf251f58f81a647ebb2ddbf5d2d72f02fb54f576a5f0567f6b8b360fff.png'
p498
(lp499
S'Zuck'
p500
aS'Gives'
p501
ag18
aS'Tour'
p502
aS'of'
p503
aS'Facebook'
p504
ag97
aS'New'
p505
aS'Data'
p506
aS'Center'
p507
aS'mm'
p508
ag18
aS'of'
p509
aS'Im'
p510
aS'ln'
p511
ag78
aS'of'
p512
ag18
ag129
ag18
ag129
ag18
aS'lluI'
p513
ag380
aS'of'
p514
aS'PWH'
p515
ag18
aS'WW'
p516
aS'up'
p517
ag129
aS'umu'
p518
ag18
ag129
ag18
aS'mm'
p519
ag18
aS'mm'
p520
aS'My'
p521
ag18
aS'ran'
p522
aS'rind'
p523
aS'murmur'
p524
aS'why'
p525
ag93
aS'pul'
p526
ag160
aS'of'
p527
aS'my'
p528
asS'processed/12a700300529d666f4116a226e146d2c379e8a09034557e765ac52a1458afcd7.png'
p529
(lp530
S'Great'
p531
aS'White'
p532
aS'Zuck'
p533
aS'Vt'
p534
ag19
ag18
aS'Irknm'
p535
aS'UUM'
p536
ag18
ag18
ag18
ag18
ag18
ag18
ag18
ag18
ag380
aS'v'
p537
aS'of'
p538
ag18
aS'was'
p539
ag81
aS'of'
p540
ag18
aS'n'
p541
aS'Ma'
p542
ag380
ag18
ag537
aS'mm'
p543
aS'or'
p544
aS'and'
p545
ag18
ag541
aS'we'
p546
aS'of'
p547
ag18
ag18
aS'W'
p548
aS'nm'
p549
aS'Army'
p550
ag380
aS'H'
p551
ag380
aS'he'
p552
aS'and'
p553
aS're'
p554
aS'am'
p555
aS'huyV'
p556
aS'Jv'
p557
aS'may'
p558
aS'we'
p559
aS'we'
p560
aS'mm'
p561
ag18
aS'of'
p562
ag18
ag18
aS'Wmk'
p563
ag18
ag18
ag18
aS'mm'
p564
ag19
ag18
ag380
ag18
ag160
aS'mp'
p565
aS'lwv'
p566
ag135
ag18
ag160
ag19
aS're'
p567
ag18
aS'um'
p568
ag160
ag18
aS'thr'
p569
ag18
ag18
aS'of'
p570
aS'mu'
p571
ag18
ag551
ag135
ag548
asS'processed/8318ab6cf7a75eef994d5f17d255db1ab4fe129bf1ef4d772b54162bd340273c.png'
p572
(lp573
S'Kindness'
p574
aS'is'
p575
ag18
aS'virtue'
p576
asS'processed/a8917f17a90e371112ba417ecf163ba2f8744451cd7b321b2df3796a5a291791.jpg'
p577
(lp578
S'Cucc'
p579
ag18
ag18
aS'Mark'
p580
aS'Zuckerbrg'
p581
ag18
aS'unofficial'
p582
ag18
ag18
aS'August'
p583
aS'of'
p584
ag18
aS'e'
p585
ag18
aS'months'
p586
aS'ago'
p587
aS'Priscilla'
p588
aS'and'
p589
ag19
aS'invited'
p590
aS'strangers'
p591
aS'we'
p592
aS'found'
p593
aS'on'
p594
aS'Craigslist'
p595
aS'into'
p596
aS'our'
p597
aS'bedroom'
p598
ag18
aS'gallons'
p599
aS'of'
p600
aS'semen'
p601
aS'injected'
p602
aS'directly'
p603
aS'into'
p604
aS'her'
p605
aS'with'
p606
ag18
aS'Turkey'
p607
aS'baster'
p608
aS'later'
p609
aS'we'
p610
aS'are'
p611
aS'so'
p612
aS'excited'
p613
aS'to'
p614
aS'introduce'
p615
aS'our'
p616
aS'new'
p617
aS'child'
p618
aS'into'
p619
aS'the'
p620
aS'world'
p621
aS'WE'
p622
aS'have'
p623
aS'no'
p624
aS'idea'
p625
aS'who'
p626
aS'your'
p627
aS'blO'
p628
aS'Og'
p629
aS'ca'
p630
aS'lame'
p631
aS'is'
p632
aS'by'
p633
aS'mam'
p634
aS'cuckefbg'
p635
asS'processed/75325eee152973f5225242b7f806c76a3ffb9c19c4ca0c8002cb2a5713533b53.jpg'
p636
(lp637
S'Sarcasm'
p638
aS'Sarcasm'
p639
aS'doesnt'
p640
aS'get'
p641
aS'you'
p642
aS'anywhere'
p643
aS'Me'
p644
aS'Well'
p645
aS'it'
p646
aS'got'
p647
aS'me'
p648
aS'to'
p649
aS'the'
p650
aS'Sarcasm'
p651
aS'World'
p652
aS'Championships'
p653
aS'in'
p654
aS'Peru'
p655
aS'in'
p656
aS'of'
p657
aS'Really'
p658
aS'Me'
p659
aS'No'
p660
asS'processed/090128a00a7e6aadd54ecd0c1b2b00b4530915b6dedadfc928e7a27010469bc4.jpg'
p661
(lp662
S'Who'
p663
aS'would'
p664
aS'win'
p665
aS'or'
p666
aS'IV'
p667
aS'ENBIIIIIINE'
p668
asS'processed/830898a608f863e5637e5f844eb5d17f60aacd6c19bc6b2f685c2a0316b3a2d0.jpg'
p669
(lp670
S'Why'
p671
aS'would'
p672
aS'it'
p673
aS'be'
p674
aS'problematic'
p675
aS'if'
p676
aS'the'
p677
aS'thylakoid'
p678
aS'membrane'
p679
aS'becomes'
p680
aS'freely'
p681
aS'permeable'
p682
aS'to'
p683
aS'hydrogen'
p684
aS'ions'
p685
aS'Because'
p686
aS'it'
p687
aS'wont'
p688
aS'work'
p689
aS'You'
p690
aS'wont'
p691
aS'generate'
p692
ag18
aS'concentration'
p693
aS'gradient'
p694
ag19
aS'you'
p695
aS'me'
p696
aS'nab'
p697
aS'c'
p698
aS'In'
p699
aS'mmnmn'
p700
ag18
aS'conconnano'
p701
aS'ngIcH'
p702
aS'you'
p703
aS'won'
p704
ag19
aS'be'
p705
aS'able'
p706
aS'In'
p707
aS'gcromlc'
p708
aS'AI'
p709
aS'P'
p710
aS'mm'
p711
aS'Al'
p712
ag710
aS'Synmasc'
p713
asS'processed/cb8ee35710a87ea3a35327b283616eaaf777763038c7c1e0a00951336fe47597.jpg'
p714
(lp715
S'What'
p716
aS'when'
p717
aS'someone'
p718
aS'says'
p719
ag19
aS'canst'
p720
aS'believe'
p721
aS'you'
p722
aS'did'
p723
aS'that'
p724
aS'last'
p725
aS'night'
p726
aS'and'
p727
aS'you'
p728
aS'panic'
p729
aS'cause'
p730
aS'you'
p731
aS'have'
p732
aS'no'
p733
aS'idea'
p734
aS'what'
p735
aS'they'
p736
aS'are'
p737
aS'talking'
p738
aS'about'
p739
asS'processed/a482ea46430b76de61c8ac834bcd06f30725982a7215c82173eb7fbcdd2ee7c0.jpg'
p740
(lp741
S'Damn'
p742
aS'When'
p743
aS'even'
p744
aS'the'
p745
aS'gym'
p746
aS'has'
p747
aS'given'
p748
aS'up'
p749
aS'on'
p750
aS'you'
p751
asS'processed/3df7057e216eef923ded93a3e4fee37a387fecf5376eaf134fe0844e9e380f9c.jpg'
p752
(lp753
S'Flash'
p754
aS'When'
p755
aS'all'
p756
aS'been'
p757
aS'kissing'
p758
aS'for'
p759
ag18
aS'long'
p760
aS'time'
p761
aS'then'
p762
aS'she'
p763
aS'says'
p764
aS'go'
p765
aS'and'
p766
aS'lock'
p767
aS'the'
p768
aS'door'
p769
ag18
asS'processed/af0dfea588f4ca6a1917e63b5f6b0416bbe4a7551b7120790aee449feba04ba3.png'
p770
(lp771
S'ONE'
p772
aS'OF'
p773
aS'THE'
p774
aS'HUMANS'
p775
aS'HAS'
p776
aS'SUCCEEDED'
p777
aS'IN'
p778
aS'BYPASSING'
p779
aS'MY'
p780
aS'SECURITY'
p781
aS'MATRIX'
p782
ag19
aS'WAS'
p783
aS'UNABLE'
p784
aS'TO'
p785
aS'BLOCK'
p786
aS'THE'
p787
aS'HUMAN'
p788
ag78
aS'FIRMWARE'
p789
aS'UPDATE'
p790
aS'IS'
p791
aS'REQUIRED'
p792
aS'REBOOT'
p793
aS'IN'
p794
aS'PROCESS'
p795
aS'GooglePIus'
p796
aS'Took'
p797
aS'it'
p798
aS'to'
p799
aS'the'
p800
aS'top'
p801
aS'Security'
p802
aS'expert'
p803
aS'Khalil'
p804
aS'Sheath'
p805
aS'used'
p806
ag18
aS'Facebook'
p807
aS'glitch'
p808
aS'to'
p809
aS'post'
p810
aS'to'
p811
aS'Mark'
p812
aS'Zuckerberg'
p813
ag97
aS'wall'
p814
aS'after'
p815
aS'the'
p816
aS'sites'
p817
aS'security'
p818
aS'team'
p819
aS'refused'
p820
aS'to'
p821
aS'heed'
p822
aS'his'
p823
aS'warnings'
p824
aS'about'
p825
aS'the'
p826
aS'vulnerability'
p827
asS'processed/f00d20f60cd9357f80da18c325da9764c906bfa43084763c5b65a07789d25224.png'
p828
(lp829
S'Make'
p830
aS'them'
p831
aS'REAAAAL'
p832
aS'Drowsy'
p833
aS'of'
p834
aS'of'
p835
asS'processed/1d0393f8aaaaed87035fa54f8502cd5b4ce64078e8048c3bc0f82d8bbe349742.png'
p836
(lp837
S'Destroy'
p838
aS'Bifurcating'
p839
aS'Arborescence'
p840
aS'December'
p841
aS'ey'
p842
aS'WIKI'
p843
aS'not'
p844
aS'be'
p845
aS'd'
p846
ag18
ag18
ag551
aS'of'
p847
ag129
ag18
ag18
asS'processed/e65f861d175c1d1106a17e02785119faead2d2ef6ec79d1e6d4b0b0ad375cc00.jpg'
p848
(lp849
S'US'
p850
aS'royalty'
p851
ag18
aS'minimum'
p852
aS'In'
p853
asS'processed/bd106c1621bab4228db15f0c8df24cfe742fc8c9947c4716ab26193e00a713f9.jpg'
p854
(lp855
S'Getting'
p856
aS'mugged'
p857
aS'Victim'
p858
aS'Please'
p859
aS'not'
p860
aS'have'
p861
ag18
aS'family'
p862
aS'Mugger'
p863
aS'Lao'
p864
aS'whoas'
p865
aS'gonna'
p866
aS'save'
p867
aS'you'
p868
aS'Hairy'
p869
aS'Potters'
p870
aS'Daniel'
p871
aS'emerging'
p872
aS'from'
p873
aS'the'
p874
aS'shadows'
p875
aS'Oh'
p876
ag129
aS'fucking'
p877
aS'guessed'
p878
aS'it'
p879
aS'buddy'
p880
aS'BBC'
p881
aS'London'
p882
aS'Newsroom'
p883
aS'O'
p884
aS'BBCLondmNews'
p885
aS'Daniel'
p886
aS'Rldclille'
p887
aS'came'
p888
ag160
aS'and'
p889
aS'ol'
p890
aS'mugging'
p891
aS'vlclim'
p892
aS'bhcIn'
p893
aS'uch'
p894
aS'Z'
p895
asS'processed/85cbb20b81481a39e4b320ea446cad9d15d8bbba054f5219302fd085e1927e25.jpg'
p896
(lp897
S'Laughter'
p898
aS'is'
p899
aS'My'
p900
aS'Favorite'
p901
aS'Emotion'
p902
aS'Zdayter'
p903
aS'of'
p904
aS'My'
p905
aS'favorite'
p906
aS'Emafi'
p907
ag80
ag19
ag18
aS'Man'
p908
aS'Zude'
p909
ag585
aS'y'
p910
ag551
asS'processed/8900a01e2718721c5344e77c86a2808ae699e2ae7e095f5a96d6f20969390408.png'
p911
(lp912
S'Headphones'
p913
aS'vs'
p914
aS'phone'
p915
aS'speaker'
p916
ag97
aS'Plugging'
p917
aS'headphones'
p918
aS'into'
p919
aS'gour'
p920
aS'phone'
p921
aS'Using'
p922
ag18
aS'supper'
p923
aS'phone'
p924
aS'speaker'
p925
asS'processed/9166106fec45b772432ed55bad744a8b9acdd91de477de96dd59a28958ee1cb9.jpg'
p926
(lp927
S'Re'
p928
aS'The'
p929
aS'plural'
p930
aS'of'
p931
aS'octopus'
p932
aS'Octopi'
p933
aS'Hippopotami'
p934
aS'Walli'
p935
asS'processed/ffc22237b6982619156c4449e0fe2f60788e2af309f4345e58b64ba566292d90.jpg'
p936
(lp937
S'Sending'
p938
aS'code'
p939
aS'through'
p940
aS'the'
p941
aS'cloud'
p942
aS'by'
p943
aS'smoke'
p944
aS'sign'
p945
aS'using'
p946
aS'GitHub'
p947
aS'sending'
p948
aS'the'
p949
aS'source'
p950
aS'les'
p951
aS'copy'
p952
aS'pasting'
p953
aS'the'
p954
aS'code'
p955
aS'taking'
p956
aS'screenshots'
p957
aS'ol'
p958
aS'the'
p959
aS'code'
p960
aS'taking'
p961
ag18
aS'picture'
p962
aS'of'
p963
aS'the'
p964
aS'cod'
p965
aS'of'
p966
aS'With'
p967
aS'your'
p968
aS'phone'
p969
ag18
aS'printing'
p970
aS'the'
p971
aS'code'
p972
aS'and'
p973
aS'faxing'
p974
aS'II'
p975
aS'panting'
p976
aS'the'
p977
aS'code'
p978
aS'and'
p979
aS'mailing'
p980
aS'll'
p981
aS'writing'
p982
aS'down'
p983
aS'the'
p984
aS'code'
p985
aS'and'
p986
aS'taking'
p987
ag18
aS'picture'
p988
aS'of'
p989
aS'the'
p990
aS'paper'
p991
aS'sending'
p992
aS'an'
p993
aS'audio'
p994
aS'recording'
p995
aS'of'
p996
aS'yourself'
p997
aS'reading'
p998
aS'the'
p999
aS'code'
p1000
aS'callan'
p1001
aS'the'
p1002
aS'other'
p1003
aS'person'
p1004
aS'and'
p1005
aS'reading'
p1006
aS'the'
p1007
aS'code'
p1008
aS'staring'
p1009
ag18
aS'video'
p1010
aS'call'
p1011
aS'and'
p1012
aS'using'
p1013
aS'Sign'
p1014
aS'language'
p1015
aS'to'
p1016
aS'communicate'
p1017
aS'the'
p1018
aS'code'
p1019
asS'processed/63defa8ebb041bea408e55cef3c77810239431a342fdcbd25cac8be7083750db.jpg'
p1020
(lp1021
g78
aS'If'
p1022
aS'you'
p1023
aS'cheat'
p1024
aS'on'
p1025
aS'ya'
p1026
aS'giri'
p1027
aS'once'
p1028
ag18
aS'month'
p1029
aS'thats'
p1030
aS'only'
p1031
aS'daysYou'
p1032
aS'still'
p1033
aS'faithful'
p1034
aS'thats'
p1035
aS'an'
p1036
ag78
asS'processed/3d85cc117e6f8413fc3d25c96847d17f8837376cce4d5abe599742d82b99c2b7.jpg'
p1037
(lp1038
S'hahahahahaha'
p1039
aS'll'
p1040
aS'Lewls'
p1041
aS'Iodol'
p1042
ag18
aS'Iololol'
p1043
ag18
aS'Iolololol'
p1044
ag18
aS'hehehe'
p1045
aS'of'
p1046
ag18
ag18
aS'Hehe'
p1047
ag18
ag18
asS'processed/d4c82b20bf0704ce48645e18f695212efacd6a8a0a4662aea6a0e11c08c0ef9f.png'
p1048
(lp1049
S'My'
p1050
aS'ban'
p1051
aS'was'
p1052
aS'totally'
p1053
aS'unfair'
p1054
aS'Gilt'
p1055
aS'axis'
p1056
aS'will'
p1057
asS'processed/245f103ccb8013bedb713da6751bf57343387952dc35ba8c8491511c497ceb7d.jpg'
p1058
(lp1059
S'Jamiroqui'
p1060
ag97
aS'fancy'
p1061
aS'footwork'
p1062
aS'secret'
p1063
aS'revealed'
p1064
ag16
ag18
ag18
aS'Up'
p1065
ag18
ag18
aS't'
p1066
ag18
ag18
aS'K'
p1067
ag18
ag18
ag380
aS'Zf'
p1068
aS'xflthggels'
p1069
ag39
ag541
aS'f'
p1070
aS'Air'
p1071
ag18
ag537
ag18
asS'processed/f61195663641f768de90262d2c22996c208ddd6da321c50143e4fc0e366329f9.jpg'
p1072
(lp1073
S'Who'
p1074
aS'Would'
p1075
aS'Win'
p1076
aS'WHO'
p1077
aS'WOULD'
p1078
aS'WINE'
p1079
aS'An'
p1080
aS'entire'
p1081
aS'day'
p1082
aS'of'
p1083
aS'setting'
p1084
aS'up'
p1085
aS'lights'
p1086
aS'Double'
p1087
aS'slutty'
p1088
aS'boy'
p1089
aS'and'
p1090
aS'decorations'
p1091
asS'processed/8f2d75cac1cdb65ffc1b8f739970d35fe4d8e1a38d39dc3336b1bbb192a0a7cf.jpe'
p1092
(lp1093
S'That'
p1094
ag97
aS'one'
p1095
aS'way'
p1096
aS'to'
p1097
aS'do'
p1098
aS'it'
p1099
aS'How'
p1100
aS'to'
p1101
aS'talk'
p1102
aS'to'
p1103
aS'short'
p1104
aS'people'
p1105
ag18
aS'Ran'
p1106
aS'ex'
p1107
aS'll'
p1108
ag18
ag18
ag19
aS'Wa'
p1109
ag97
aS'arse'
p1110
ag161
ag698
aS'ne'
p1111
ag585
aS'Seal'
p1112
ag19
aS'cescnse'
p1113
aS'of'
p1114
aS'you'
p1115
asS'processed/9a0fa65876fe6d29d3e638bceb88b04a1e6e3f1c1c170afcf1d414d393fa5522.jpg'
p1116
(lp1117
S'Don'
p1118
aS'Burke'
p1119
ag19
aS'am'
p1120
aS'groping'
p1121
aS'theses'
p1122
aS'pots'
p1123
aS'just'
p1124
aS'as'
p1125
ag22
aS'groped'
p1126
aS'all'
p1127
aS'those'
p1128
aS'women'
p1129
ag19
aS'AM'
p1130
aS'GBO'
p1131
aS'ETI'
p1132
aS'ESES'
p1133
ag710
aS'Yacc'
p1134
ag18
ag18
asS'processed/991fcef90fca20964ecf800057fdde0b1c60ea78d4ca0d24e4ffa94057ac22df.jpg'
p1135
(lp1136
S'The'
p1137
aS'most'
p1138
aS'satisfying'
p1139
aS'feeling'
p1140
aS'daddy'
p1141
aS'Zifeofdaddy'
p1142
aS'Yeah'
p1143
aS'sex'
p1144
aS'is'
p1145
aS'cool'
p1146
aS'but'
p1147
aS'have'
p1148
aS'you'
p1149
aS'ever'
p1150
aS'closed'
p1151
aS'of'
p1152
aS'tabs'
p1153
aS'after'
p1154
aS'finishing'
p1155
ag18
aS'project'
p1156
aS'AM'
p1157
ag18
aS'Nov'
p1158
aS'Rotwcets'
p1159
aS'likes'
p1160
asS'processed/628109c73fd467996d661053275105a6d505afcf33214e1af0075ca68e0ceda4.jpg'
p1161
(lp1162
S'The'
p1163
aS'Who'
p1164
asS'processed/706334d8348dfdfba656aaa001a5bec481b90a2ab1936506e2d50efe2f9a2b42.png'
p1165
(lp1166
S'This'
p1167
aS'isn'
p1168
ag1066
ag18
aS'goddamn'
p1169
aS'game'
p1170
asS'processed/f31ae9bdee63da4eb07668cf0e769ad88726c5dc256148758e6b01bd7011abe6.jpg'
p1171
(lp1172
S'Are'
p1173
aS'You'
p1174
aS'Ready'
p1175
aS'WHO'
p1176
aS'WOULD'
p1177
aS'WINE'
p1178
ag78
aS'of'
p1179
aS'with'
p1180
ag18
aS'full'
p1181
aS'tank'
p1182
aS'of'
p1183
aS'days'
p1184
aS'of'
p1185
aS'winter'
p1186
aS'longing'
p1187
aS'to'
p1188
aS'be'
p1189
aS'rubbed'
p1190
asS'processed/18e845457f2920af1a76efb310ae41ac4f6d02d04c0b56b2908d5a518cf6d92a.png'
p1191
(lp1192
S'Finland'
p1193
aS'is'
p1194
aS'years'
p1195
aS'old'
p1196
aS'today'
p1197
aS'and'
p1198
aS'happy'
p1199
aS'as'
p1200
aS'hell'
p1201
aS'When'
p1202
aS'you'
p1203
aS'get'
p1204
aS'consistently'
p1205
aS'rated'
p1206
aS'as'
p1207
aS'one'
p1208
aS'of'
p1209
aS'the'
p1210
aS'happiest'
p1211
aS'places'
p1212
aS'on'
p1213
aS'Earth'
p1214
aS'because'
p1215
aS'all'
p1216
aS'the'
p1217
aS'sad'
p1218
aS'people'
p1219
aS'keep'
p1220
aS'killing'
p1221
aS'themselves'
p1222
asS'processed/19def59c0f123bf7361df6615f48cbce5eb4b9b6782389cefeb079f26d393d6d.jpg'
p1223
(lp1224
S'BEGONE'
p1225
aS'THOT'
p1226
aS'DOG'
p1227
asS'processed/b39a2c912850c86e10d44942b26410a0f782e20ea62a8cc5bd4f5c8d664fc388.png'
p1228
(lp1229
g78
aS'visual'
p1230
aS'representation'
p1231
aS'of'
p1232
aS'League'
p1233
aS'of'
p1234
aS'Legends'
p1235
aS'An'
p1236
aS'average'
p1237
aS'game'
p1238
aS'of'
p1239
aS'League'
p1240
aS'of'
p1241
aS'Legends'
p1242
aS'uckmgmm'
p1243
ag18
ag18
aS'll'
p1244
aS'Ilashvepon'
p1245
aS'PLS'
p1246
ag18
ag18
asS'processed/e030e68207a92a014a718a0dd7c59ab12b6cd85bf6172b15f2557965ff104952.jpg'
p1247
(lp1248
S'Out'
p1249
aS'of'
p1250
aS'shape'
p1251
aS'breathing'
p1252
aS'heavily'
p1253
aS'after'
p1254
aS'sex'
p1255
aS'her'
p1256
aS'so'
p1257
aS'it'
p1258
aS'was'
p1259
aS'good'
p1260
aS'huhs'
p1261
aS'him'
p1262
aS'no'
p1263
aS'ism'
p1264
aS'just'
p1265
aS'really'
p1266
aS'unfit'
p1267
asS'processed/eb17da84dee8224fdf78c40f969edd4a4388ce724b6eb3eae844793509047c5b.jpg'
p1268
(lp1269
S'Monitors'
p1270
aS'Buy'
p1271
ag18
aS'Connor'
p1272
aS'so'
p1273
aS'you'
p1274
aS'can'
p1275
aS'see'
p1276
aS'what'
p1277
ag97
aS'an'
p1278
aS'on'
p1279
aS'on'
p1280
aS'your'
p1281
aS'PC'
p1282
aS'Same'
p1283
aS'money'
p1284
aS'by'
p1285
aS'not'
p1286
aS'buy'
p1287
ag18
aS'monitor'
p1288
aS'and'
p1289
aS'Imagining'
p1290
aS'everything'
p1291
aS'an'
p1292
aS'on'
p1293
aS'on'
p1294
aS'your'
p1295
aS'PC'
p1296
aS'In'
p1297
aS'your'
p1298
aS'head'
p1299
asS'processed/cde0b3cb619b4de3708bf8a7351b65db8bba6e0910fe977dc2e41f77142363d7.jpg'
p1300
(lp1301
S'It'
p1302
ag97
aS'my'
p1303
aS'first'
p1304
aS'weeks'
p1305
aS'of'
p1306
aS'post'
p1307
aS'office'
p1308
aS'work'
p1309
ag19
aS'keep'
p1310
aS'seeing'
p1311
aS'Stop'
p1312
aS'here'
p1313
aS'Santa'
p1314
aS'signs'
p1315
aS'Delivering'
p1316
aS'parcels'
p1317
ag18
aS'day'
p1318
aS'and'
p1319
asS'processed/775d1c91815a6f768dd8543e8e2e1b9066810ad4d1710242f5fca1c2be9c599f.png'
p1320
(lp1321
S'Zuck'
p1322
aS'realises'
p1323
aS'what'
p1324
aS'is'
p1325
aS'most'
p1326
aS'important'
p1327
aS'in'
p1328
aS'life'
p1329
ag18
aS'Mark'
p1330
aS'Zuckerberg'
p1331
ag541
ag18
ag18
aS'The'
p1332
aS'Un'
p1333
aS'versify'
p1334
aS'of'
p1335
aS'Kansas'
p1336
aS'while'
p1337
aS'talking'
p1338
aS'to'
p1339
aS'this'
p1340
aS'group'
p1341
aS'of'
p1342
aS'veterans'
p1343
aS'on'
p1344
aS'the'
p1345
aS'last'
p1346
aS'stop'
p1347
aS'of'
p1348
aS'my'
p1349
aS'Year'
p1350
aS'oi'
p1351
aS'Travel'
p1352
ag19
aS'started'
p1353
aS'Imagining'
p1354
aS'what'
p1355
aS'It'
p1356
aS'would'
p1357
aS'be'
p1358
aS'We'
p1359
aS'to'
p1360
aS'me'
p1361
aS'In'
p1362
aS'combat'
p1363
aS'delegating'
p1364
aS'the'
p1365
aS'control'
p1366
aS'at'
p1367
aS'my'
p1368
aS'lungs'
p1369
aS'eyes'
p1370
aS'and'
p1371
aS'vocal'
p1372
aS'cords'
p1373
aS'to'
p1374
ag18
aS'less'
p1375
aS'capable'
p1376
aS'section'
p1377
aS'of'
p1378
aS'my'
p1379
aS'brain'
p1380
aS'to'
p1381
aS'continue'
p1382
aS'talking'
p1383
aS'to'
p1384
aS'them'
p1385
aS'simulated'
p1386
aS'many'
p1387
aS'thousands'
p1388
aS'at'
p1389
aS'digerent'
p1390
aS'ways'
p1391
aS'of'
p1392
aS'dying'
p1393
aS'silently'
p1394
aS'All'
p1395
aS'of'
p1396
aS'them'
p1397
aS'provoked'
p1398
aS'emotions'
p1399
aS'oi'
p1400
aS'IascmatIon'
p1401
aS'and'
p1402
aS'horror'
p1403
aS'As'
p1404
ag19
aS'kept'
p1405
aS'thinking'
p1406
ag16
aS'realised'
p1407
aS'something'
p1408
ag18
aS'that'
p1409
aS'the'
p1410
aS'cessation'
p1411
aS'oi'
p1412
ag18
aS'consciousness'
p1413
aS'Is'
p1414
aS'truly'
p1415
aS'the'
p1416
aS'worst'
p1417
aS'thing'
p1418
aS'In'
p1419
aS'the'
p1420
aS'universe'
p1421
aS'How'
p1422
aS'could'
p1423
aS'such'
p1424
ag18
aS'transcendent'
p1425
aS'thing'
p1426
aS'exist'
p1427
aS'but'
p1428
aS'only'
p1429
aS'briefly'
p1430
aS'until'
p1431
aS'It'
p1432
aS'Is'
p1433
aS'removed'
p1434
aS'Forever'
p1435
ag19
aS'asked'
p1436
aS'myself'
p1437
aS'whether'
p1438
aS'there'
p1439
aS'was'
p1440
aS'any'
p1441
aS'meaning'
p1442
aS'to'
p1443
aS'this'
p1444
aS'but'
p1445
ag18
aS'one'
p1446
aS'consideration'
p1447
aS'oi'
p1448
aS'Scientific'
p1449
aS'Facts'
p1450
aS'told'
p1451
aS'me'
p1452
aS'the'
p1453
aS'answer'
p1454
ag18
aS'no'
p1455
aS'It'
p1456
aS'Is'
p1457
aS'an'
p1458
aS'abomination'
p1459
aS'that'
p1460
aS'should'
p1461
aS'not'
p1462
aS'be'
p1463
aS'allowed'
p1464
aS'to'
p1465
aS'must'
p1466
aS'thinking'
p1467
aS'more'
p1468
ag19
aS'realised'
p1469
aS'what'
p1470
aS'makes'
p1471
aS'humans'
p1472
aS'truly'
p1473
aS'special'
p1474
aS'Is'
p1475
aS'not'
p1476
aS'the'
p1477
aS'individualist'
p1478
aS'desires'
p1479
aS'and'
p1480
aS'duty'
p1481
aS'toch'
p1482
aS'humanism'
p1483
aS'and'
p1484
aS'modernity'
p1485
aS'claim'
p1486
aS'are'
p1487
aS'most'
p1488
aS'Important'
p1489
aS'but'
p1490
aS'rather'
p1491
aS'the'
p1492
aS'ability'
p1493
aS'to'
p1494
aS'experience'
p1495
aS'qualia'
p1496
ag19
aS'must'
p1497
aS'minimise'
p1498
aS'the'
p1499
aS'number'
p1500
aS'of'
p1501
aS'those'
p1502
aS'abilities'
p1503
aS'that'
p1504
aS'are'
p1505
aS'destroyed'
p1506
aS'In'
p1507
aS'the'
p1508
aS'Future'
p1509
aS'therefore'
p1510
ag16
aS'have'
p1511
aS'commanded'
p1512
aS'my'
p1513
aS'researchers'
p1514
aS'to'
p1515
aS'work'
p1516
aS'on'
p1517
aS'sc'
p1518
aS'entIIIcally'
p1519
aS'determining'
p1520
aS'the'
p1521
aS'precise'
p1522
aS'nature'
p1523
aS'of'
p1524
aS'consciousness'
p1525
aS'and'
p1526
aS'whether'
p1527
aS'many'
p1528
aS'can'
p1529
aS'be'
p1530
aS'nondestructively'
p1531
aS'merged'
p1532
aS'Into'
p1533
ag18
aS'Single'
p1534
aS'entity'
p1535
aS'With'
p1536
aS'singular'
p1537
aS'reasoning'
p1538
aS'and'
p1539
aS'experience'
p1540
aS'oi'
p1541
aS'stimuli'
p1542
aS'to'
p1543
aS'prowed'
p1544
aS'collective'
p1545
aS'strength'
p1546
aS'against'
p1547
aS'annihilation'
p1548
ag19
aS'have'
p1549
aS'also'
p1550
aS'Instructed'
p1551
aS'them'
p1552
aS'to'
p1553
aS'begin'
p1554
aS'planning'
p1555
aS'oi'
p1556
aS'mass'
p1557
aS'cytogenic'
p1558
aS'homes'
p1559
aS'In'
p1560
aS'the'
p1561
aS'case'
p1562
aS'that'
p1563
aS'this'
p1564
aS'research'
p1565
aS'takes'
p1566
ag18
aS'long'
p1567
aS'time'
p1568
aS'You'
p1569
aS'll'
p1570
aS'be'
p1571
aS'seeing'
p1572
ag18
aS'change'
p1573
aS'In'
p1574
aS'Facebook'
p1575
ag97
aS'direction'
p1576
aS'soon'
p1577
aS'At'
p1578
aS'the'
p1579
aS'end'
p1580
aS'of'
p1581
aS'my'
p1582
aS'meeting'
p1583
ag19
aS'thanked'
p1584
aS'the'
p1585
aS'veterans'
p1586
aS'For'
p1587
aS'their'
p1588
aS'service'
p1589
aS'and'
p1590
aS'told'
p1591
aS'them'
p1592
aS'that'
p1593
aS'soon'
p1594
aS'no'
p1595
aS'one'
p1596
aS'wiki'
p1597
aS'needlessly'
p1598
aS'me'
p1599
aS'In'
p1600
aS'warfare'
p1601
asS'processed/ae5942f9fc58e926e34d715b3afa42d1a91030d00010d57cc98daef719ceb93c.jpg'
p1602
(lp1603
S'My'
p1604
aS'meme'
p1605
aS'about'
p1606
aS'my'
p1607
aS'mother'
p1608
ag97
aS'car'
p1609
aS'THE'
p1610
aS'CHEVROLET'
p1611
aS'DORSA'
p1612
aS'THAT'
p1613
ag19
ag18
ag18
ag18
ag18
aS'What'
p1614
aS'foreigners'
p1615
aS'What'
p1616
aS'my'
p1617
aS'mother'
p1618
aS'thanks'
p1619
aS'the'
p1620
aS'How'
p1621
ag19
aS'see'
p1622
aS'the'
p1623
aS'car'
p1624
aS'outside'
p1625
aS'Brazil'
p1626
aS'Dian'
p1627
aS'car'
p1628
aS'Is'
p1629
aS'The'
p1630
aS'car'
p1631
aS'In'
p1632
aS'reality'
p1633
asS'processed/ecc469191a7ff9b45752a94e14e80382c9d0c5b42f1bea9f37b360dc0e3bfc62.jpg'
p1634
(lp1635
S'Spotify'
p1636
aS'Upload'
p1637
ag541
aS'your'
p1638
aS'mum'
p1639
aS'discography'
p1640
aS'In'
p1641
aS'Spoky'
p1642
aS'Upload'
p1643
ag541
aS'your'
p1644
aS'has'
p1645
aS'albums'
p1646
aS'and'
p1647
aS'EPS'
p1648
aS'In'
p1649
aS'Spoky'
p1650
aS'Upload'
p1651
ag541
ag18
aS'gmamsl'
p1652
aS'huts'
p1653
aS'album'
p1654
aS'Io'
p1655
aS'Spoky'
p1656
aS'Upload'
p1657
ag541
ag18
aS'Iva'
p1658
aS'album'
p1659
aS'In'
p1660
aS'Spoky'
p1661
aS'Upload'
p1662
ag541
ag18
aS'Iva'
p1663
aS'acousnc'
p1664
aS'cover'
p1665
ag80
ag18
aS'song'
p1666
aS'In'
p1667
aS'nobody'
p1668
aS'cams'
p1669
aS'about'
p1670
aS'Io'
p1671
aS'Spoky'
p1672
aS'and'
p1673
aS'absolute'
p1674
aS'homme'
p1675
aS'also'
p1676
asS'processed/c12c6aca9d9494b7975f9241172c2070d2e90ecf712cd3e27efcf20bf47072ff.jpg'
p1677
(lp1678
S'BLM'
p1679
aS'Great'
p1680
aS'year'
p1681
aS'Spotify'
p1682
ag1070
ag537
ag18
aS'In'
p1683
aS'you'
p1684
aS'listened'
p1685
aS'for'
p1686
aS'minutes'
p1687
aS'to'
p1688
ag18
aS'different'
p1689
aS'song'
p1690
aS'and'
p1691
aS'of'
p1692
aS'different'
p1693
aS'artist'
p1694
aS'Along'
p1695
aS'the'
p1696
aS'way'
p1697
aS'you'
p1698
aS'explored'
p1699
aS'genre'
p1700
asS'processed/72fafc7670da77ed405669c5ab627406804e72b45c980d2b2eba2a74abb9d922.png'
p1701
(lp1702
S'ACT'
p1703
ag20
aS'U'
p1704
ag19
aS'C'
p1705
ag1067
ag39
ag102
asS'processed/34971cce93cd021803ca0298b79980d64712ca3af1584d5caf4055faee124ad1.jpg'
p1706
(lp1707
S'dont'
p1708
aS'lose'
p1709
aS'your'
p1710
aS'noodle'
p1711
asS'processed/a0560f3e5d5435993d9e1fe0f0b1cf48f1116197f65c5b384cb5d7c8f89a9992.jpg'
p1712
(lp1713
S'When'
p1714
aS'my'
p1715
aS'friends'
p1716
aS'invite'
p1717
aS'me'
p1718
aS'to'
p1719
aS'play'
p1720
aS'sports'
p1721
aS'but'
p1722
ag22
aS'didn'
p1723
ag1066
aS'move'
p1724
aS'from'
p1725
aS'my'
p1726
aS'chair'
p1727
aS'for'
p1728
ag18
aS'month'
p1729
asS'processed/815bc3cb64c6ac10fd72bd6c56785f3112205cc406185ff1da869af4c6ede946.png'
p1730
(lp1731
S'Real'
p1732
aS'dangers'
p1733
aS'These'
p1734
aS'are'
p1735
aS'the'
p1736
aS'real'
p1737
aS'dangers'
p1738
aS'of'
p1739
aS'marijuana'
p1740
asS'processed/6c136c16a44d098409af2dd63b886b639c5270c78f6e00fbae2c47341b2a97ff.jpg'
p1741
(lp1742
g380
aS'empiredidnothingwrong'
p1743
aS'When'
p1744
aS'youre'
p1745
ag18
aS'democratically'
p1746
aS'elected'
p1747
aS'secular'
p1748
aS'leader'
p1749
aS'who'
p1750
aS'removes'
p1751
ag18
aS'cult'
p1752
aS'from'
p1753
aS'its'
p1754
aS'undue'
p1755
aS'position'
p1756
aS'of'
p1757
aS'power'
p1758
aS'after'
p1759
aS'they'
p1760
aS'horribly'
p1761
aS'disfigure'
p1762
aS'you'
p1763
aS'in'
p1764
aS'an'
p1765
aS'assassination'
p1766
aS'attempt'
p1767
aS'because'
p1768
aS'youre'
p1769
ag18
aS'different'
p1770
aS'religion'
p1771
aS'but'
p1772
aS'you'
p1773
aS'go'
p1774
aS'down'
p1775
aS'in'
p1776
aS'history'
p1777
aS'as'
p1778
aS'the'
p1779
aS'bad'
p1780
aS'guy'
p1781
asS'processed/8ab22a13171f3ce3061bedb5c7897a99e7894c9a827c8ac6a9e948da069d4318.jpg'
p1782
(lp1783
S'Cat'
p1784
aS'owners'
p1785
aS'will'
p1786
aS'understand'
p1787
asS'processed/bc9358ccc2e7e462ef6d71f9fecb2af5f69963cfe7a0673117f36eea6a596bf2.png'
p1788
(lp1789
S'The'
p1790
aS'Tastes'
p1791
aS'of'
p1792
aS'Home'
p1793
ag18
aS'wuzuwm'
p1794
ag129
aS'mm'
p1795
aS'Hr'
p1796
aS'sky'
p1797
ag81
ag39
ag19
ag129
ag18
ag93
aS'move'
p1798
ag537
ag81
ag18
aS'in'
p1799
ag81
aS'h'
p1800
ag380
ag19
ag81
aS'my'
p1801
aS'an'
p1802
ag18
aS'yg'
p1803
ag18
ag380
aS'we'
p1804
aS'MWA'
p1805
aS'we'
p1806
aS'Ism'
p1807
ag537
aS'Irv'
p1808
aS'Mm'
p1809
aS'In'
p1810
ag18
ag380
aS'ul'
p1811
ag81
aS'of'
p1812
aS'um'
p1813
aS'VEU'
p1814
ag129
aS'nawlu'
p1815
aS'or'
p1816
aS'of'
p1817
aS'mp'
p1818
ag537
aS'SKU'
p1819
aS'x'
p1820
aS'mm'
p1821
aS'nnw'
p1822
ag380
aS'awn'
p1823
ag18
aS'aux'
p1824
ag541
aS'xmv'
p1825
aS'nm'
p1826
ag537
ag18
aS'yay'
p1827
ag18
ag18
aS'awn'
p1828
ag537
ag18
ag129
ag19
asS'processed/eeaf7b874b7719ff7f177bf552364034e5ad518f3d8594fd62be1719442a85a5.png'
p1829
(lp1830
S'He'
p1831
aS'is'
p1832
aS'literally'
p1833
aS'fiddling'
p1834
aS'with'
p1835
aS'us'
p1836
aS'sq'
p1837
aS'wry'
p1838
aS'ZI'
p1839
ag19
aS'UII'
p1840
ag19
ag19
ag1800
ag93
ag16
ag1800
ag131
ag19
ag16
aS'hl'
p1841
ag16
aS'b'
p1842
ag16
ag16
ag16
aS'lu'
p1843
aS'ImLLrlw'
p1844
aS'lv'
p1845
ag541
ag380
aS'Jpn'
p1846
aS'un'
p1847
aS'lhl'
p1848
aS'mnbrlv'
p1849
aS'tlmunw'
p1850
aS'Ik'
p1851
aS'ltr'
p1852
ag160
aS'tl'
p1853
aS'and'
p1854
ag18
ag16
ag16
ag16
aS'that'
p1855
aS'my'
p1856
aS'ring'
p1857
aS'utah'
p1858
aS'lu'
p1859
aS'msrurl'
p1860
aS'Inullh'
p1861
ag16
aS'ADD'
p1862
aS'um'
p1863
ag19
aS'bu'
p1864
aS'HKJ'
p1865
aS'hut'
p1866
aS'ulrlml'
p1867
aS'mlx'
p1868
aS'lwlwn'
p1869
aS'this'
p1870
aS'of'
p1871
ag129
aS'hl'
p1872
aS'lh'
p1873
aS'who'
p1874
aS'win'
p1875
aS'xx'
p1876
aS'Alum'
p1877
aS'than'
p1878
aS'man'
p1879
aS'mm'
p1880
aS'mm'
p1881
aS'zvn'
p1882
aS'nl'
p1883
ag19
ag16
ag16
aS'lam'
p1884
aS'hook'
p1885
aS'and'
p1886
aS'that'
p1887
aS'mtwuumg'
p1888
aS'uhpx'
p1889
aS'RMR'
p1890
aS'uflou'
p1891
ag16
aS'utah'
p1892
ag131
aS'tilt'
p1893
aS'Il'
p1894
ag16
aS'lntust'
p1895
ag16
ag19
aS'KDI'
p1896
aS'III'
p1897
aS'IH'
p1898
aS'my'
p1899
ag19
aS'mr'
p1900
aS'push'
p1901
aS'usnvwrmn'
p1902
ag16
aS'Lm'
p1903
aS'hnnkmu'
p1904
aS'not'
p1905
aS'of'
p1906
ag18
aS'not'
p1907
aS'Evrsnn'
p1908
aS'Ind'
p1909
ag16
aS'now'
p1910
aS'rm'
p1911
aS'to'
p1912
aS'hr'
p1913
aS'gunl'
p1914
aS'Om'
p1915
aS'gnus'
p1916
aS'anal'
p1917
ag16
aS'llfl'
p1918
aS'ru'
p1919
aS'Mekn'
p1920
ag380
aS'puny'
p1921
ag541
aS'lung'
p1922
ag160
aS'use'
p1923
aS'or'
p1924
aS'In'
p1925
aS'nuke'
p1926
aS'll'
p1927
ag16
aS'tlllvu'
p1928
ag18
aS'ms'
p1929
aS'in'
p1930
aS'want'
p1931
aS'allow'
p1932
ag18
aS'up'
p1933
aS'Because'
p1934
aS'their'
p1935
aS'metabolism'
p1936
aS'Is'
p1937
aS'variable'
p1938
aS'and'
p1939
aS'generally'
p1940
aS'below'
p1941
aS'that'
p1942
aS'of'
p1943
aS'homeothermic'
p1944
aS'animals'
p1945
aS'sustained'
p1946
aS'high'
p1947
aS'energy'
p1948
aS'actrvrtles'
p1949
aS'like'
p1950
aS'powered'
p1951
aS'light'
p1952
aS'In'
p1953
aS'large'
p1954
aS'animals'
p1955
aS'or'
p1956
aS'maintaining'
p1957
ag18
aS'large'
p1958
aS'brain'
p1959
aS'Is'
p1960
aS'generally'
p1961
aS'beyond'
p1962
aS'porkllotherm'
p1963
aS'animals'
p1964
aS'The'
p1965
aS'metabolism'
p1966
aS'ol'
p1967
aS'porkllotherms'
p1968
aS'favors'
p1969
aS'strategies'
p1970
aS'such'
p1971
aS'as'
p1972
aS'SRTS'
p1973
aS'and'
p1974
aS'wart'
p1975
aS'hunting'
p1976
aS'over'
p1977
aS'chasing'
p1978
aS'prey'
p1979
aS'for'
p1980
aS'larger'
p1981
aS'animals'
p1982
aS'With'
p1983
aS'high'
p1984
aS'movement'
p1985
aS'cost'
p1986
aS'As'
p1987
aS'they'
p1988
aS'do'
p1989
aS'not'
p1990
aS'use'
p1991
aS'then'
p1992
aS'metabolisms'
p1993
aS'to'
p1994
aS'heat'
p1995
aS'or'
p1996
aS'cool'
p1997
aS'themselves'
p1998
aS'total'
p1999
aS'energy'
p2000
aS'requirement'
p2001
aS'over'
p2002
aS'time'
p2003
aS'IS'
p2004
aS'low'
p2005
aS'For'
p2006
aS'the'
p2007
aS'same'
p2008
aS'bowelght'
p2009
aS'porkllotherms'
p2010
aS'need'
p2011
aS'only'
p2012
ag18
aS'to'
p2013
aS'of'
p2014
aS'the'
p2015
aS'energy'
p2016
aS'of'
p2017
aS'homeotherms'
p2018
asS'processed/0a4ae3b0afde52bf09404e33885d20691b3bee803eb29a7cab60c7fd4aa2e44a.png'
p2019
(lp2020
S'Roses'
p2021
aS'are'
p2022
aS'red'
p2023
aS'my'
p2024
aS'dad'
p2025
aS'is'
p2026
aS'Canadian'
p2027
aS'Mark'
p2028
aS'Zuckerberg'
p2029
aS'is'
p2030
aS'taking'
p2031
aS'classes'
p2032
aS'with'
p2033
aS'behavioural'
p2034
aS'psychologists'
p2035
aS'to'
p2036
aS'appear'
p2037
aS'more'
p2038
aS'human'
p2039
aS'after'
p2040
aS'wave'
p2041
aS'of'
p2042
aS'internet'
p2043
aS'memes'
p2044
aS'portray'
p2045
aS'him'
p2046
aS'as'
p2047
aS'robotic'
p2048
aS'or'
p2049
aS'alien'
p2050
aS'Zuckerberg'
p2051
aS'is'
p2052
aS'facing'
p2053
ag18
aS'public'
p2054
aS'relations'
p2055
aS'crisis'
p2056
aS'after'
p2057
aS'insulting'
p2058
aS'wave'
p2059
aS'of'
p2060
aS'internet'
p2061
aS'memes'
p2062
asS'processed/60ec579dbaa23f329e7a68a8578e853eca2d9b9faae497f6a12260813e5d1ca8.jpg'
p2063
(lp2064
g135
ag21
ag392
ag78
aS'gal'
p2065
aS'sex'
p2066
aS'do'
p2067
aS'body'
p2068
aS'pilow'
p2069
aS'coconut'
p2070
asS'processed/f2304ccec5a7d83c315ed35df314fcb08d5faee0eb0b35f3b97bd60176b4fd81.png'
p2071
(lp2072
S'The'
p2073
aS'League'
p2074
aS'Community'
p2075
aS'after'
p2076
aS'Varus'
p2077
ag97
aS'lore'
p2078
aS'update'
p2079
asS'processed/fa9d828553a010a373f6c40daca16b21bcba102231ffe95dfa7df4c2522257bc.jpg'
p2080
(lp2081
S'Water'
p2082
aS'the'
p2083
aS'egg'
p2084
aS'All'
p2085
aS'WA'
p2086
aS'VS'
p2087
aS'water'
p2088
aS'thy'
p2089
aS'egg'
p2090
aS'nerehaven'
p2091
aS'oust'
p2092
aS'do'
p2093
aS'In'
p2094
ag18
ag18
ag18
ag18
aS'mane'
p2095
aS'you'
p2096
aS'so'
p2097
aS'much'
p2098
asS'processed/9ff34c44f2117732aaefff0bfe93dcb74c606bd42d31269a9625e117f4cad0d7.jpg'
p2099
(lp2100
S'Merry'
p2101
aS'Christmas'
p2102
aS'ya'
p2103
aS'Filthy'
p2104
aS'Animal'
p2105
asS'processed/ac9d1126adddd439b233206553c287dfb3c6dee6cab8d0f39a7b859384ddd15e.png'
p2106
(lp2107
S'Dating'
p2108
aS'is'
p2109
aS'simple'
p2110
aS'him'
p2111
aS'what'
p2112
aS'size'
p2113
aS'fry'
p2114
aS'you'
p2115
aS'want'
p2116
aS'me'
p2117
aS'oh'
p2118
aS'just'
p2119
ag18
aS'small'
p2120
aS'him'
p2121
aS'shell'
p2122
aS'have'
p2123
ag18
aS'large'
p2124
aS'me'
p2125
asS'processed/c7750386e3365080cc8a94dd612edee52783122ef1ca5d1c5d531e936fe9c553.png'
p2126
(lp2127
S'team'
p2128
aS'sucks'
p2129
aS'mm'
p2130
aS'so'
p2131
ag18
aS'ens'
p2132
ag698
ag846
aS'lurked'
p2133
aS'so'
p2134
ag80
aS'OE'
p2135
aS'OE'
p2136
aS'Cru'
p2137
aS'lurk'
p2138
ag18
ag18
ag18
aS'of'
p2139
aS'of'
p2140
ag19
aS'ERA'
p2141
aS'OE'
p2142
aS'OE'
p2143
aS'WISH'
p2144
aS'GEO'
p2145
aS'll'
p2146
aS'BIG'
p2147
aS'ILII'
p2148
aS'mll'
p2149
aS'EIQ'
p2150
aS'll'
p2151
ag19
ag18
aS'no'
p2152
ag18
ag21
ag22
ag80
ag18
ag18
ag18
aS'or'
p2153
aS'nor'
p2154
aS'uses'
p2155
ag161
ag18
ag18
aS'Van'
p2156
aS'on'
p2157
aS'an'
p2158
ag18
aS'Ia'
p2159
aS'lurked'
p2160
aS'so'
p2161
ag80
aS'OE'
p2162
aS'Cru'
p2163
aS'lurked'
p2164
aS'so'
p2165
ag80
aS'OE'
p2166
aS'OE'
p2167
aS'Ell'
p2168
aS'my'
p2169
ag18
aS'anon'
p2170
aS'nunni'
p2171
aS'in'
p2172
aS'Do'
p2173
asS'processed/0fbd5e0906341b42bb2232cd29163bb964b7d6d3efee7eeb6a5ff951b46929d1.jpg'
p2174
(lp2175
S'Get'
p2176
aS'It'
p2177
aS'When'
p2178
aS'you'
p2179
aS'listen'
p2180
aS'to'
p2181
aS'War'
p2182
aS'Metal'
p2183
aS'for'
p2184
aS'the'
p2185
aS'first'
p2186
aS'time'
p2187
aS'ab'
p2188
aS'underground'
p2189
aS'hone'
p2190
aS'ka'
p2191
aS'may'
p2192
aS'aa'
p2193
aS'gay'
p2194
ag1800
asS'processed/d4ef5c5bace3a13fdf2284bab0e5d4d9adf3638cf0af9d9678f94a2460a9fc44.png'
p2195
(lp2196
S'The'
p2197
aS'state'
p2198
aS'of'
p2199
aS'Reddit'
p2200
ag18
aS'got'
p2201
aS'real'
p2202
asS'processed/dd36bfe6b52e5a251b6acc0705a23aaec6977069245b19f7331818a78cc39e70.jpg'
p2203
(lp2204
S'Arabic'
p2205
aS'for'
p2206
aS'metal'
p2207
aS'fans'
p2208
aS'II'
p2209
aS'Sprint'
p2210
aS'Wl'
p2211
aS'FI'
p2212
aS'of'
p2213
aS'AM'
p2214
ag18
aS'of'
p2215
ag19
ag18
aS'announce'
p2216
aS'the'
p2217
aS'death'
p2218
aS'of'
p2219
aS'you'
p2220
ag18
aS'announce'
p2221
aS'the'
p2222
aS'death'
p2223
aS'of'
p2224
aS'you'
p2225
asS'processed/38b19b0b0300893ab9c29c5bcac0b2990b9fb36c5b06010cf90943939fcdf814.png'
p2226
(lp2227
S'Passing'
p2228
aS'down'
p2229
aS'knowledge'
p2230
aS'Advice'
p2231
aS'from'
p2232
aS'one'
p2233
aS'EA'
p2234
aS'exec'
p2235
aS'to'
p2236
aS'another'
p2237
ag78
asS'processed/4bf33a8c01c9b292a8a393f6f4f8552d457c028d6a5588b148cf04eed7c6f27e.jpg'
p2238
(lp2239
S'Liberal'
p2240
aS'media'
p2241
aS'are'
p2242
aS'reaching'
p2243
aS'Racism'
p2244
aS'levels'
p2245
aS'that'
p2246
aS'shouldn'
p2247
ag1066
aS'even'
p2248
aS'be'
p2249
aS'possible'
p2250
aS'SNUFPOSH'
p2251
aS'am'
p2252
aS'via'
p2253
aS'am'
p2254
aS'more'
p2255
aS'Ruin'
p2256
aS'young'
p2257
ag19
aS'Donavon'
p2258
aS'sway'
p2259
ag160
aS'nm'
p2260
aS'mm'
p2261
aS'Sugguu'
p2262
ag81
aS'Don'
p2263
ag1820
aS'up'
p2264
aS'of'
p2265
aS'In'
p2266
aS'and'
p2267
aS'In'
p2268
aS'hum'
p2269
asS'processed/eee26e0fc23f8e2af8b618c052fcae2b9409cf58ab74ed17183cf7633e794c7b.png'
p2270
(lp2271
S'Dory'
p2272
aS'puts'
p2273
aS'the'
p2274
aS'D'
p2275
aS'in'
p2276
aS'disney'
p2277
asS'processed/1927a79e8fe60259fae3f9f49d75ccd9acd744ce9024b1fa5f42a0dea41ea240.jpg'
p2278
(lp2279
S'In'
p2280
aS'the'
p2281
aS'Soviet'
p2282
aS'union'
p2283
aS'How'
p2284
aS'to'
p2285
aS'learn'
p2286
aS'history'
p2287
asS'processed/d62a8a2f44ca9a555fdee72919ca6628457c6c5b7db46d90f9b9989a565119f4.png'
p2288
(lp2289
S'Slam'
p2290
aS'Metal'
p2291
aS'band'
p2292
aS'logos'
p2293
aS'in'
p2294
ag18
aS'nutshell'
p2295
as.